ARM GAS  /tmp/ccfkKAY2.s 			page 1


   1              		.syntax unified
   2              		.cpu cortex-m3
   3              		.fpu softvfp
   4              		.eabi_attribute 20, 1
   5              		.eabi_attribute 21, 1
   6              		.eabi_attribute 23, 3
   7              		.eabi_attribute 24, 1
   8              		.eabi_attribute 25, 1
   9              		.eabi_attribute 26, 1
  10              		.eabi_attribute 30, 1
  11              		.eabi_attribute 34, 1
  12              		.eabi_attribute 18, 4
  13              		.thumb
  14              		.syntax unified
  15              		.file	"stm32f1xx_hal_dma.c"
  16              		.text
  17              	.Ltext0:
  18              		.cfi_sections	.debug_frame
  19              		.section	.text.DMA_SetConfig,"ax",%progbits
  20              		.align	2
  21              		.thumb
  22              		.thumb_func
  24              	DMA_SetConfig:
  25              	.LFB76:
  26              		.file 1 "Drivers/STM32F1xx_HAL_Driver/Src/stm32f1xx_hal_dma.c"
   1:Drivers/STM32F1xx_HAL_Driver/Src/stm32f1xx_hal_dma.c **** /**
   2:Drivers/STM32F1xx_HAL_Driver/Src/stm32f1xx_hal_dma.c ****   ******************************************************************************
   3:Drivers/STM32F1xx_HAL_Driver/Src/stm32f1xx_hal_dma.c ****   * @file    stm32f1xx_hal_dma.c
   4:Drivers/STM32F1xx_HAL_Driver/Src/stm32f1xx_hal_dma.c ****   * @author  MCD Application Team
   5:Drivers/STM32F1xx_HAL_Driver/Src/stm32f1xx_hal_dma.c ****   * @brief   DMA HAL module driver.
   6:Drivers/STM32F1xx_HAL_Driver/Src/stm32f1xx_hal_dma.c ****   *         This file provides firmware functions to manage the following
   7:Drivers/STM32F1xx_HAL_Driver/Src/stm32f1xx_hal_dma.c ****   *         functionalities of the Direct Memory Access (DMA) peripheral:
   8:Drivers/STM32F1xx_HAL_Driver/Src/stm32f1xx_hal_dma.c ****   *           + Initialization and de-initialization functions
   9:Drivers/STM32F1xx_HAL_Driver/Src/stm32f1xx_hal_dma.c ****   *           + IO operation functions
  10:Drivers/STM32F1xx_HAL_Driver/Src/stm32f1xx_hal_dma.c ****   *           + Peripheral State and errors functions
  11:Drivers/STM32F1xx_HAL_Driver/Src/stm32f1xx_hal_dma.c ****   @verbatim
  12:Drivers/STM32F1xx_HAL_Driver/Src/stm32f1xx_hal_dma.c ****   ==============================================================================
  13:Drivers/STM32F1xx_HAL_Driver/Src/stm32f1xx_hal_dma.c ****                         ##### How to use this driver #####
  14:Drivers/STM32F1xx_HAL_Driver/Src/stm32f1xx_hal_dma.c ****   ==============================================================================
  15:Drivers/STM32F1xx_HAL_Driver/Src/stm32f1xx_hal_dma.c ****   [..]
  16:Drivers/STM32F1xx_HAL_Driver/Src/stm32f1xx_hal_dma.c ****    (#) Enable and configure the peripheral to be connected to the DMA Channel
  17:Drivers/STM32F1xx_HAL_Driver/Src/stm32f1xx_hal_dma.c ****        (except for internal SRAM / FLASH memories: no initialization is 
  18:Drivers/STM32F1xx_HAL_Driver/Src/stm32f1xx_hal_dma.c ****        necessary). Please refer to the Reference manual for connection between peripherals
  19:Drivers/STM32F1xx_HAL_Driver/Src/stm32f1xx_hal_dma.c ****        and DMA requests.
  20:Drivers/STM32F1xx_HAL_Driver/Src/stm32f1xx_hal_dma.c **** 
  21:Drivers/STM32F1xx_HAL_Driver/Src/stm32f1xx_hal_dma.c ****    (#) For a given Channel, program the required configuration through the following parameters:
  22:Drivers/STM32F1xx_HAL_Driver/Src/stm32f1xx_hal_dma.c ****        Channel request, Transfer Direction, Source and Destination data formats,
  23:Drivers/STM32F1xx_HAL_Driver/Src/stm32f1xx_hal_dma.c ****        Circular or Normal mode, Channel Priority level, Source and Destination Increment mode
  24:Drivers/STM32F1xx_HAL_Driver/Src/stm32f1xx_hal_dma.c ****        using HAL_DMA_Init() function.
  25:Drivers/STM32F1xx_HAL_Driver/Src/stm32f1xx_hal_dma.c **** 
  26:Drivers/STM32F1xx_HAL_Driver/Src/stm32f1xx_hal_dma.c ****    (#) Use HAL_DMA_GetState() function to return the DMA state and HAL_DMA_GetError() in case of er
  27:Drivers/STM32F1xx_HAL_Driver/Src/stm32f1xx_hal_dma.c ****        detection.
  28:Drivers/STM32F1xx_HAL_Driver/Src/stm32f1xx_hal_dma.c ****                     
  29:Drivers/STM32F1xx_HAL_Driver/Src/stm32f1xx_hal_dma.c ****    (#) Use HAL_DMA_Abort() function to abort the current transfer
  30:Drivers/STM32F1xx_HAL_Driver/Src/stm32f1xx_hal_dma.c ****                    
  31:Drivers/STM32F1xx_HAL_Driver/Src/stm32f1xx_hal_dma.c ****      -@-   In Memory-to-Memory transfer mode, Circular mode is not allowed.
  32:Drivers/STM32F1xx_HAL_Driver/Src/stm32f1xx_hal_dma.c ****      *** Polling mode IO operation ***
ARM GAS  /tmp/ccfkKAY2.s 			page 2


  33:Drivers/STM32F1xx_HAL_Driver/Src/stm32f1xx_hal_dma.c ****      =================================
  34:Drivers/STM32F1xx_HAL_Driver/Src/stm32f1xx_hal_dma.c ****     [..]
  35:Drivers/STM32F1xx_HAL_Driver/Src/stm32f1xx_hal_dma.c ****           (+) Use HAL_DMA_Start() to start DMA transfer after the configuration of Source
  36:Drivers/STM32F1xx_HAL_Driver/Src/stm32f1xx_hal_dma.c ****               address and destination address and the Length of data to be transferred
  37:Drivers/STM32F1xx_HAL_Driver/Src/stm32f1xx_hal_dma.c ****           (+) Use HAL_DMA_PollForTransfer() to poll for the end of current transfer, in this
  38:Drivers/STM32F1xx_HAL_Driver/Src/stm32f1xx_hal_dma.c ****               case a fixed Timeout can be configured by User depending from his application.
  39:Drivers/STM32F1xx_HAL_Driver/Src/stm32f1xx_hal_dma.c **** 
  40:Drivers/STM32F1xx_HAL_Driver/Src/stm32f1xx_hal_dma.c ****      *** Interrupt mode IO operation ***
  41:Drivers/STM32F1xx_HAL_Driver/Src/stm32f1xx_hal_dma.c ****      ===================================
  42:Drivers/STM32F1xx_HAL_Driver/Src/stm32f1xx_hal_dma.c ****     [..]
  43:Drivers/STM32F1xx_HAL_Driver/Src/stm32f1xx_hal_dma.c ****           (+) Configure the DMA interrupt priority using HAL_NVIC_SetPriority()
  44:Drivers/STM32F1xx_HAL_Driver/Src/stm32f1xx_hal_dma.c ****           (+) Enable the DMA IRQ handler using HAL_NVIC_EnableIRQ()
  45:Drivers/STM32F1xx_HAL_Driver/Src/stm32f1xx_hal_dma.c ****           (+) Use HAL_DMA_Start_IT() to start DMA transfer after the configuration of
  46:Drivers/STM32F1xx_HAL_Driver/Src/stm32f1xx_hal_dma.c ****               Source address and destination address and the Length of data to be transferred.
  47:Drivers/STM32F1xx_HAL_Driver/Src/stm32f1xx_hal_dma.c ****               In this case the DMA interrupt is configured
  48:Drivers/STM32F1xx_HAL_Driver/Src/stm32f1xx_hal_dma.c ****           (+) Use HAL_DMA_IRQHandler() called under DMA_IRQHandler() Interrupt subroutine
  49:Drivers/STM32F1xx_HAL_Driver/Src/stm32f1xx_hal_dma.c ****           (+) At the end of data transfer HAL_DMA_IRQHandler() function is executed and user can
  50:Drivers/STM32F1xx_HAL_Driver/Src/stm32f1xx_hal_dma.c ****               add his own function by customization of function pointer XferCpltCallback and
  51:Drivers/STM32F1xx_HAL_Driver/Src/stm32f1xx_hal_dma.c ****               XferErrorCallback (i.e. a member of DMA handle structure).
  52:Drivers/STM32F1xx_HAL_Driver/Src/stm32f1xx_hal_dma.c **** 
  53:Drivers/STM32F1xx_HAL_Driver/Src/stm32f1xx_hal_dma.c ****      *** DMA HAL driver macros list ***
  54:Drivers/STM32F1xx_HAL_Driver/Src/stm32f1xx_hal_dma.c ****      ============================================= 
  55:Drivers/STM32F1xx_HAL_Driver/Src/stm32f1xx_hal_dma.c ****       [..]
  56:Drivers/STM32F1xx_HAL_Driver/Src/stm32f1xx_hal_dma.c ****        Below the list of most used macros in DMA HAL driver.
  57:Drivers/STM32F1xx_HAL_Driver/Src/stm32f1xx_hal_dma.c **** 
  58:Drivers/STM32F1xx_HAL_Driver/Src/stm32f1xx_hal_dma.c ****        (+) __HAL_DMA_ENABLE: Enable the specified DMA Channel.
  59:Drivers/STM32F1xx_HAL_Driver/Src/stm32f1xx_hal_dma.c ****        (+) __HAL_DMA_DISABLE: Disable the specified DMA Channel.
  60:Drivers/STM32F1xx_HAL_Driver/Src/stm32f1xx_hal_dma.c ****        (+) __HAL_DMA_GET_FLAG: Get the DMA Channel pending flags.
  61:Drivers/STM32F1xx_HAL_Driver/Src/stm32f1xx_hal_dma.c ****        (+) __HAL_DMA_CLEAR_FLAG: Clear the DMA Channel pending flags.
  62:Drivers/STM32F1xx_HAL_Driver/Src/stm32f1xx_hal_dma.c ****        (+) __HAL_DMA_ENABLE_IT: Enable the specified DMA Channel interrupts.
  63:Drivers/STM32F1xx_HAL_Driver/Src/stm32f1xx_hal_dma.c ****        (+) __HAL_DMA_DISABLE_IT: Disable the specified DMA Channel interrupts.
  64:Drivers/STM32F1xx_HAL_Driver/Src/stm32f1xx_hal_dma.c ****        (+) __HAL_DMA_GET_IT_SOURCE: Check whether the specified DMA Channel interrupt has occurred 
  65:Drivers/STM32F1xx_HAL_Driver/Src/stm32f1xx_hal_dma.c **** 
  66:Drivers/STM32F1xx_HAL_Driver/Src/stm32f1xx_hal_dma.c ****      [..] 
  67:Drivers/STM32F1xx_HAL_Driver/Src/stm32f1xx_hal_dma.c ****       (@) You can refer to the DMA HAL driver header file for more useful macros  
  68:Drivers/STM32F1xx_HAL_Driver/Src/stm32f1xx_hal_dma.c **** 
  69:Drivers/STM32F1xx_HAL_Driver/Src/stm32f1xx_hal_dma.c ****   @endverbatim
  70:Drivers/STM32F1xx_HAL_Driver/Src/stm32f1xx_hal_dma.c ****   ******************************************************************************
  71:Drivers/STM32F1xx_HAL_Driver/Src/stm32f1xx_hal_dma.c ****   * @attention
  72:Drivers/STM32F1xx_HAL_Driver/Src/stm32f1xx_hal_dma.c ****   *
  73:Drivers/STM32F1xx_HAL_Driver/Src/stm32f1xx_hal_dma.c ****   * <h2><center>&copy; COPYRIGHT(c) 2017 STMicroelectronics</center></h2>
  74:Drivers/STM32F1xx_HAL_Driver/Src/stm32f1xx_hal_dma.c ****   *
  75:Drivers/STM32F1xx_HAL_Driver/Src/stm32f1xx_hal_dma.c ****   * Redistribution and use in source and binary forms, with or without modification,
  76:Drivers/STM32F1xx_HAL_Driver/Src/stm32f1xx_hal_dma.c ****   * are permitted provided that the following conditions are met:
  77:Drivers/STM32F1xx_HAL_Driver/Src/stm32f1xx_hal_dma.c ****   *   1. Redistributions of source code must retain the above copyright notice,
  78:Drivers/STM32F1xx_HAL_Driver/Src/stm32f1xx_hal_dma.c ****   *      this list of conditions and the following disclaimer.
  79:Drivers/STM32F1xx_HAL_Driver/Src/stm32f1xx_hal_dma.c ****   *   2. Redistributions in binary form must reproduce the above copyright notice,
  80:Drivers/STM32F1xx_HAL_Driver/Src/stm32f1xx_hal_dma.c ****   *      this list of conditions and the following disclaimer in the documentation
  81:Drivers/STM32F1xx_HAL_Driver/Src/stm32f1xx_hal_dma.c ****   *      and/or other materials provided with the distribution.
  82:Drivers/STM32F1xx_HAL_Driver/Src/stm32f1xx_hal_dma.c ****   *   3. Neither the name of STMicroelectronics nor the names of its contributors
  83:Drivers/STM32F1xx_HAL_Driver/Src/stm32f1xx_hal_dma.c ****   *      may be used to endorse or promote products derived from this software
  84:Drivers/STM32F1xx_HAL_Driver/Src/stm32f1xx_hal_dma.c ****   *      without specific prior written permission.
  85:Drivers/STM32F1xx_HAL_Driver/Src/stm32f1xx_hal_dma.c ****   *
  86:Drivers/STM32F1xx_HAL_Driver/Src/stm32f1xx_hal_dma.c ****   * THIS SOFTWARE IS PROVIDED BY THE COPYRIGHT HOLDERS AND CONTRIBUTORS "AS IS"
  87:Drivers/STM32F1xx_HAL_Driver/Src/stm32f1xx_hal_dma.c ****   * AND ANY EXPRESS OR IMPLIED WARRANTIES, INCLUDING, BUT NOT LIMITED TO, THE
  88:Drivers/STM32F1xx_HAL_Driver/Src/stm32f1xx_hal_dma.c ****   * IMPLIED WARRANTIES OF MERCHANTABILITY AND FITNESS FOR A PARTICULAR PURPOSE ARE
  89:Drivers/STM32F1xx_HAL_Driver/Src/stm32f1xx_hal_dma.c ****   * DISCLAIMED. IN NO EVENT SHALL THE COPYRIGHT HOLDER OR CONTRIBUTORS BE LIABLE
ARM GAS  /tmp/ccfkKAY2.s 			page 3


  90:Drivers/STM32F1xx_HAL_Driver/Src/stm32f1xx_hal_dma.c ****   * FOR ANY DIRECT, INDIRECT, INCIDENTAL, SPECIAL, EXEMPLARY, OR CONSEQUENTIAL
  91:Drivers/STM32F1xx_HAL_Driver/Src/stm32f1xx_hal_dma.c ****   * DAMAGES (INCLUDING, BUT NOT LIMITED TO, PROCUREMENT OF SUBSTITUTE GOODS OR
  92:Drivers/STM32F1xx_HAL_Driver/Src/stm32f1xx_hal_dma.c ****   * SERVICES; LOSS OF USE, DATA, OR PROFITS; OR BUSINESS INTERRUPTION) HOWEVER
  93:Drivers/STM32F1xx_HAL_Driver/Src/stm32f1xx_hal_dma.c ****   * CAUSED AND ON ANY THEORY OF LIABILITY, WHETHER IN CONTRACT, STRICT LIABILITY,
  94:Drivers/STM32F1xx_HAL_Driver/Src/stm32f1xx_hal_dma.c ****   * OR TORT (INCLUDING NEGLIGENCE OR OTHERWISE) ARISING IN ANY WAY OUT OF THE USE
  95:Drivers/STM32F1xx_HAL_Driver/Src/stm32f1xx_hal_dma.c ****   * OF THIS SOFTWARE, EVEN IF ADVISED OF THE POSSIBILITY OF SUCH DAMAGE.
  96:Drivers/STM32F1xx_HAL_Driver/Src/stm32f1xx_hal_dma.c ****   *
  97:Drivers/STM32F1xx_HAL_Driver/Src/stm32f1xx_hal_dma.c ****   ******************************************************************************
  98:Drivers/STM32F1xx_HAL_Driver/Src/stm32f1xx_hal_dma.c ****   */
  99:Drivers/STM32F1xx_HAL_Driver/Src/stm32f1xx_hal_dma.c **** 
 100:Drivers/STM32F1xx_HAL_Driver/Src/stm32f1xx_hal_dma.c **** /* Includes ------------------------------------------------------------------*/
 101:Drivers/STM32F1xx_HAL_Driver/Src/stm32f1xx_hal_dma.c **** #include "stm32f1xx_hal.h"
 102:Drivers/STM32F1xx_HAL_Driver/Src/stm32f1xx_hal_dma.c **** 
 103:Drivers/STM32F1xx_HAL_Driver/Src/stm32f1xx_hal_dma.c **** /** @addtogroup STM32F1xx_HAL_Driver
 104:Drivers/STM32F1xx_HAL_Driver/Src/stm32f1xx_hal_dma.c ****   * @{
 105:Drivers/STM32F1xx_HAL_Driver/Src/stm32f1xx_hal_dma.c ****   */
 106:Drivers/STM32F1xx_HAL_Driver/Src/stm32f1xx_hal_dma.c **** 
 107:Drivers/STM32F1xx_HAL_Driver/Src/stm32f1xx_hal_dma.c **** /** @defgroup DMA DMA
 108:Drivers/STM32F1xx_HAL_Driver/Src/stm32f1xx_hal_dma.c ****   * @brief DMA HAL module driver
 109:Drivers/STM32F1xx_HAL_Driver/Src/stm32f1xx_hal_dma.c ****   * @{
 110:Drivers/STM32F1xx_HAL_Driver/Src/stm32f1xx_hal_dma.c ****   */
 111:Drivers/STM32F1xx_HAL_Driver/Src/stm32f1xx_hal_dma.c **** 
 112:Drivers/STM32F1xx_HAL_Driver/Src/stm32f1xx_hal_dma.c **** #ifdef HAL_DMA_MODULE_ENABLED
 113:Drivers/STM32F1xx_HAL_Driver/Src/stm32f1xx_hal_dma.c **** 
 114:Drivers/STM32F1xx_HAL_Driver/Src/stm32f1xx_hal_dma.c **** /* Private typedef -----------------------------------------------------------*/
 115:Drivers/STM32F1xx_HAL_Driver/Src/stm32f1xx_hal_dma.c **** /* Private define ------------------------------------------------------------*/
 116:Drivers/STM32F1xx_HAL_Driver/Src/stm32f1xx_hal_dma.c **** /* Private macro -------------------------------------------------------------*/
 117:Drivers/STM32F1xx_HAL_Driver/Src/stm32f1xx_hal_dma.c **** /* Private variables ---------------------------------------------------------*/
 118:Drivers/STM32F1xx_HAL_Driver/Src/stm32f1xx_hal_dma.c **** /* Private function prototypes -----------------------------------------------*/
 119:Drivers/STM32F1xx_HAL_Driver/Src/stm32f1xx_hal_dma.c **** /** @defgroup DMA_Private_Functions DMA Private Functions
 120:Drivers/STM32F1xx_HAL_Driver/Src/stm32f1xx_hal_dma.c ****   * @{
 121:Drivers/STM32F1xx_HAL_Driver/Src/stm32f1xx_hal_dma.c ****   */
 122:Drivers/STM32F1xx_HAL_Driver/Src/stm32f1xx_hal_dma.c **** static void DMA_SetConfig(DMA_HandleTypeDef *hdma, uint32_t SrcAddress, uint32_t DstAddress, uint32
 123:Drivers/STM32F1xx_HAL_Driver/Src/stm32f1xx_hal_dma.c **** /**
 124:Drivers/STM32F1xx_HAL_Driver/Src/stm32f1xx_hal_dma.c ****   * @}
 125:Drivers/STM32F1xx_HAL_Driver/Src/stm32f1xx_hal_dma.c ****   */
 126:Drivers/STM32F1xx_HAL_Driver/Src/stm32f1xx_hal_dma.c **** 
 127:Drivers/STM32F1xx_HAL_Driver/Src/stm32f1xx_hal_dma.c **** /* Exported functions ---------------------------------------------------------*/
 128:Drivers/STM32F1xx_HAL_Driver/Src/stm32f1xx_hal_dma.c **** 
 129:Drivers/STM32F1xx_HAL_Driver/Src/stm32f1xx_hal_dma.c **** /** @defgroup DMA_Exported_Functions DMA Exported Functions
 130:Drivers/STM32F1xx_HAL_Driver/Src/stm32f1xx_hal_dma.c ****   * @{
 131:Drivers/STM32F1xx_HAL_Driver/Src/stm32f1xx_hal_dma.c ****   */
 132:Drivers/STM32F1xx_HAL_Driver/Src/stm32f1xx_hal_dma.c **** 
 133:Drivers/STM32F1xx_HAL_Driver/Src/stm32f1xx_hal_dma.c **** /** @defgroup DMA_Exported_Functions_Group1 Initialization and de-initialization functions
 134:Drivers/STM32F1xx_HAL_Driver/Src/stm32f1xx_hal_dma.c ****   *  @brief   Initialization and de-initialization functions 
 135:Drivers/STM32F1xx_HAL_Driver/Src/stm32f1xx_hal_dma.c ****   *
 136:Drivers/STM32F1xx_HAL_Driver/Src/stm32f1xx_hal_dma.c **** @verbatim
 137:Drivers/STM32F1xx_HAL_Driver/Src/stm32f1xx_hal_dma.c ****  ===============================================================================
 138:Drivers/STM32F1xx_HAL_Driver/Src/stm32f1xx_hal_dma.c ****              ##### Initialization and de-initialization functions  #####
 139:Drivers/STM32F1xx_HAL_Driver/Src/stm32f1xx_hal_dma.c ****  ===============================================================================
 140:Drivers/STM32F1xx_HAL_Driver/Src/stm32f1xx_hal_dma.c ****     [..]
 141:Drivers/STM32F1xx_HAL_Driver/Src/stm32f1xx_hal_dma.c ****     This section provides functions allowing to initialize the DMA Channel source
 142:Drivers/STM32F1xx_HAL_Driver/Src/stm32f1xx_hal_dma.c ****     and destination addresses, incrementation and data sizes, transfer direction, 
 143:Drivers/STM32F1xx_HAL_Driver/Src/stm32f1xx_hal_dma.c ****     circular/normal mode selection, memory-to-memory mode selection and Channel priority value.
 144:Drivers/STM32F1xx_HAL_Driver/Src/stm32f1xx_hal_dma.c ****     [..]
 145:Drivers/STM32F1xx_HAL_Driver/Src/stm32f1xx_hal_dma.c ****     The HAL_DMA_Init() function follows the DMA configuration procedures as described in
 146:Drivers/STM32F1xx_HAL_Driver/Src/stm32f1xx_hal_dma.c ****     reference manual.  
ARM GAS  /tmp/ccfkKAY2.s 			page 4


 147:Drivers/STM32F1xx_HAL_Driver/Src/stm32f1xx_hal_dma.c **** 
 148:Drivers/STM32F1xx_HAL_Driver/Src/stm32f1xx_hal_dma.c **** @endverbatim
 149:Drivers/STM32F1xx_HAL_Driver/Src/stm32f1xx_hal_dma.c ****   * @{
 150:Drivers/STM32F1xx_HAL_Driver/Src/stm32f1xx_hal_dma.c ****   */
 151:Drivers/STM32F1xx_HAL_Driver/Src/stm32f1xx_hal_dma.c **** 
 152:Drivers/STM32F1xx_HAL_Driver/Src/stm32f1xx_hal_dma.c **** /**
 153:Drivers/STM32F1xx_HAL_Driver/Src/stm32f1xx_hal_dma.c ****   * @brief  Initialize the DMA according to the specified
 154:Drivers/STM32F1xx_HAL_Driver/Src/stm32f1xx_hal_dma.c ****   *         parameters in the DMA_InitTypeDef and initialize the associated handle.
 155:Drivers/STM32F1xx_HAL_Driver/Src/stm32f1xx_hal_dma.c ****   * @param  hdma: Pointer to a DMA_HandleTypeDef structure that contains
 156:Drivers/STM32F1xx_HAL_Driver/Src/stm32f1xx_hal_dma.c ****   *               the configuration information for the specified DMA Channel.
 157:Drivers/STM32F1xx_HAL_Driver/Src/stm32f1xx_hal_dma.c ****   * @retval HAL status
 158:Drivers/STM32F1xx_HAL_Driver/Src/stm32f1xx_hal_dma.c ****   */
 159:Drivers/STM32F1xx_HAL_Driver/Src/stm32f1xx_hal_dma.c **** HAL_StatusTypeDef HAL_DMA_Init(DMA_HandleTypeDef *hdma)
 160:Drivers/STM32F1xx_HAL_Driver/Src/stm32f1xx_hal_dma.c **** {
 161:Drivers/STM32F1xx_HAL_Driver/Src/stm32f1xx_hal_dma.c ****   uint32_t tmp = 0U;
 162:Drivers/STM32F1xx_HAL_Driver/Src/stm32f1xx_hal_dma.c **** 
 163:Drivers/STM32F1xx_HAL_Driver/Src/stm32f1xx_hal_dma.c ****   /* Check the DMA handle allocation */
 164:Drivers/STM32F1xx_HAL_Driver/Src/stm32f1xx_hal_dma.c ****   if(hdma == NULL)
 165:Drivers/STM32F1xx_HAL_Driver/Src/stm32f1xx_hal_dma.c ****   {
 166:Drivers/STM32F1xx_HAL_Driver/Src/stm32f1xx_hal_dma.c ****     return HAL_ERROR;
 167:Drivers/STM32F1xx_HAL_Driver/Src/stm32f1xx_hal_dma.c ****   }
 168:Drivers/STM32F1xx_HAL_Driver/Src/stm32f1xx_hal_dma.c **** 
 169:Drivers/STM32F1xx_HAL_Driver/Src/stm32f1xx_hal_dma.c ****   /* Check the parameters */
 170:Drivers/STM32F1xx_HAL_Driver/Src/stm32f1xx_hal_dma.c ****   assert_param(IS_DMA_ALL_INSTANCE(hdma->Instance));
 171:Drivers/STM32F1xx_HAL_Driver/Src/stm32f1xx_hal_dma.c ****   assert_param(IS_DMA_DIRECTION(hdma->Init.Direction));
 172:Drivers/STM32F1xx_HAL_Driver/Src/stm32f1xx_hal_dma.c ****   assert_param(IS_DMA_PERIPHERAL_INC_STATE(hdma->Init.PeriphInc));
 173:Drivers/STM32F1xx_HAL_Driver/Src/stm32f1xx_hal_dma.c ****   assert_param(IS_DMA_MEMORY_INC_STATE(hdma->Init.MemInc));
 174:Drivers/STM32F1xx_HAL_Driver/Src/stm32f1xx_hal_dma.c ****   assert_param(IS_DMA_PERIPHERAL_DATA_SIZE(hdma->Init.PeriphDataAlignment));
 175:Drivers/STM32F1xx_HAL_Driver/Src/stm32f1xx_hal_dma.c ****   assert_param(IS_DMA_MEMORY_DATA_SIZE(hdma->Init.MemDataAlignment));
 176:Drivers/STM32F1xx_HAL_Driver/Src/stm32f1xx_hal_dma.c ****   assert_param(IS_DMA_MODE(hdma->Init.Mode));
 177:Drivers/STM32F1xx_HAL_Driver/Src/stm32f1xx_hal_dma.c ****   assert_param(IS_DMA_PRIORITY(hdma->Init.Priority));
 178:Drivers/STM32F1xx_HAL_Driver/Src/stm32f1xx_hal_dma.c **** 
 179:Drivers/STM32F1xx_HAL_Driver/Src/stm32f1xx_hal_dma.c **** #if defined (STM32F101xE) || defined (STM32F101xG) || defined (STM32F103xE) || defined (STM32F103xG
 180:Drivers/STM32F1xx_HAL_Driver/Src/stm32f1xx_hal_dma.c ****   /* calculation of the channel index */
 181:Drivers/STM32F1xx_HAL_Driver/Src/stm32f1xx_hal_dma.c ****   if ((uint32_t)(hdma->Instance) < (uint32_t)(DMA2_Channel1))
 182:Drivers/STM32F1xx_HAL_Driver/Src/stm32f1xx_hal_dma.c ****   {
 183:Drivers/STM32F1xx_HAL_Driver/Src/stm32f1xx_hal_dma.c ****     /* DMA1 */
 184:Drivers/STM32F1xx_HAL_Driver/Src/stm32f1xx_hal_dma.c ****     hdma->ChannelIndex = (((uint32_t)hdma->Instance - (uint32_t)DMA1_Channel1) / ((uint32_t)DMA1_Ch
 185:Drivers/STM32F1xx_HAL_Driver/Src/stm32f1xx_hal_dma.c ****     hdma->DmaBaseAddress = DMA1;
 186:Drivers/STM32F1xx_HAL_Driver/Src/stm32f1xx_hal_dma.c ****   }
 187:Drivers/STM32F1xx_HAL_Driver/Src/stm32f1xx_hal_dma.c ****   else 
 188:Drivers/STM32F1xx_HAL_Driver/Src/stm32f1xx_hal_dma.c ****   {
 189:Drivers/STM32F1xx_HAL_Driver/Src/stm32f1xx_hal_dma.c ****     /* DMA2 */
 190:Drivers/STM32F1xx_HAL_Driver/Src/stm32f1xx_hal_dma.c ****     hdma->ChannelIndex = (((uint32_t)hdma->Instance - (uint32_t)DMA2_Channel1) / ((uint32_t)DMA2_Ch
 191:Drivers/STM32F1xx_HAL_Driver/Src/stm32f1xx_hal_dma.c ****     hdma->DmaBaseAddress = DMA2;
 192:Drivers/STM32F1xx_HAL_Driver/Src/stm32f1xx_hal_dma.c ****   }
 193:Drivers/STM32F1xx_HAL_Driver/Src/stm32f1xx_hal_dma.c **** #else
 194:Drivers/STM32F1xx_HAL_Driver/Src/stm32f1xx_hal_dma.c ****   /* DMA1 */
 195:Drivers/STM32F1xx_HAL_Driver/Src/stm32f1xx_hal_dma.c ****   hdma->ChannelIndex = (((uint32_t)hdma->Instance - (uint32_t)DMA1_Channel1) / ((uint32_t)DMA1_Chan
 196:Drivers/STM32F1xx_HAL_Driver/Src/stm32f1xx_hal_dma.c ****   hdma->DmaBaseAddress = DMA1;
 197:Drivers/STM32F1xx_HAL_Driver/Src/stm32f1xx_hal_dma.c **** #endif /* STM32F101xE || STM32F101xG || STM32F103xE || STM32F103xG || STM32F100xE || STM32F105xC ||
 198:Drivers/STM32F1xx_HAL_Driver/Src/stm32f1xx_hal_dma.c **** 
 199:Drivers/STM32F1xx_HAL_Driver/Src/stm32f1xx_hal_dma.c ****   /* Change DMA peripheral state */
 200:Drivers/STM32F1xx_HAL_Driver/Src/stm32f1xx_hal_dma.c ****   hdma->State = HAL_DMA_STATE_BUSY;
 201:Drivers/STM32F1xx_HAL_Driver/Src/stm32f1xx_hal_dma.c **** 
 202:Drivers/STM32F1xx_HAL_Driver/Src/stm32f1xx_hal_dma.c ****   /* Get the CR register value */
 203:Drivers/STM32F1xx_HAL_Driver/Src/stm32f1xx_hal_dma.c ****   tmp = hdma->Instance->CCR;
ARM GAS  /tmp/ccfkKAY2.s 			page 5


 204:Drivers/STM32F1xx_HAL_Driver/Src/stm32f1xx_hal_dma.c **** 
 205:Drivers/STM32F1xx_HAL_Driver/Src/stm32f1xx_hal_dma.c ****   /* Clear PL, MSIZE, PSIZE, MINC, PINC, CIRC and DIR bits */
 206:Drivers/STM32F1xx_HAL_Driver/Src/stm32f1xx_hal_dma.c ****   tmp &= ((uint32_t)~(DMA_CCR_PL    | DMA_CCR_MSIZE  | DMA_CCR_PSIZE  | \
 207:Drivers/STM32F1xx_HAL_Driver/Src/stm32f1xx_hal_dma.c ****                       DMA_CCR_MINC  | DMA_CCR_PINC   | DMA_CCR_CIRC   | \
 208:Drivers/STM32F1xx_HAL_Driver/Src/stm32f1xx_hal_dma.c ****                       DMA_CCR_DIR));
 209:Drivers/STM32F1xx_HAL_Driver/Src/stm32f1xx_hal_dma.c **** 
 210:Drivers/STM32F1xx_HAL_Driver/Src/stm32f1xx_hal_dma.c ****   /* Prepare the DMA Channel configuration */
 211:Drivers/STM32F1xx_HAL_Driver/Src/stm32f1xx_hal_dma.c ****   tmp |=  hdma->Init.Direction        |
 212:Drivers/STM32F1xx_HAL_Driver/Src/stm32f1xx_hal_dma.c ****           hdma->Init.PeriphInc           | hdma->Init.MemInc           |
 213:Drivers/STM32F1xx_HAL_Driver/Src/stm32f1xx_hal_dma.c ****           hdma->Init.PeriphDataAlignment | hdma->Init.MemDataAlignment |
 214:Drivers/STM32F1xx_HAL_Driver/Src/stm32f1xx_hal_dma.c ****           hdma->Init.Mode                | hdma->Init.Priority;
 215:Drivers/STM32F1xx_HAL_Driver/Src/stm32f1xx_hal_dma.c **** 
 216:Drivers/STM32F1xx_HAL_Driver/Src/stm32f1xx_hal_dma.c ****   /* Write to DMA Channel CR register */
 217:Drivers/STM32F1xx_HAL_Driver/Src/stm32f1xx_hal_dma.c ****   hdma->Instance->CCR = tmp;
 218:Drivers/STM32F1xx_HAL_Driver/Src/stm32f1xx_hal_dma.c **** 
 219:Drivers/STM32F1xx_HAL_Driver/Src/stm32f1xx_hal_dma.c **** 
 220:Drivers/STM32F1xx_HAL_Driver/Src/stm32f1xx_hal_dma.c ****   /* Clean callbacks */
 221:Drivers/STM32F1xx_HAL_Driver/Src/stm32f1xx_hal_dma.c ****   hdma->XferCpltCallback = NULL;
 222:Drivers/STM32F1xx_HAL_Driver/Src/stm32f1xx_hal_dma.c ****   hdma->XferHalfCpltCallback = NULL;
 223:Drivers/STM32F1xx_HAL_Driver/Src/stm32f1xx_hal_dma.c ****   hdma->XferErrorCallback = NULL;
 224:Drivers/STM32F1xx_HAL_Driver/Src/stm32f1xx_hal_dma.c ****   hdma->XferAbortCallback = NULL;
 225:Drivers/STM32F1xx_HAL_Driver/Src/stm32f1xx_hal_dma.c **** 
 226:Drivers/STM32F1xx_HAL_Driver/Src/stm32f1xx_hal_dma.c ****   /* Initialise the error code */
 227:Drivers/STM32F1xx_HAL_Driver/Src/stm32f1xx_hal_dma.c ****   hdma->ErrorCode = HAL_DMA_ERROR_NONE;
 228:Drivers/STM32F1xx_HAL_Driver/Src/stm32f1xx_hal_dma.c **** 
 229:Drivers/STM32F1xx_HAL_Driver/Src/stm32f1xx_hal_dma.c ****   /* Initialize the DMA state*/
 230:Drivers/STM32F1xx_HAL_Driver/Src/stm32f1xx_hal_dma.c ****   hdma->State = HAL_DMA_STATE_READY;
 231:Drivers/STM32F1xx_HAL_Driver/Src/stm32f1xx_hal_dma.c ****   /* Allocate lock resource and initialize it */
 232:Drivers/STM32F1xx_HAL_Driver/Src/stm32f1xx_hal_dma.c ****   hdma->Lock = HAL_UNLOCKED;
 233:Drivers/STM32F1xx_HAL_Driver/Src/stm32f1xx_hal_dma.c ****   
 234:Drivers/STM32F1xx_HAL_Driver/Src/stm32f1xx_hal_dma.c ****   return HAL_OK;
 235:Drivers/STM32F1xx_HAL_Driver/Src/stm32f1xx_hal_dma.c **** }
 236:Drivers/STM32F1xx_HAL_Driver/Src/stm32f1xx_hal_dma.c **** 
 237:Drivers/STM32F1xx_HAL_Driver/Src/stm32f1xx_hal_dma.c **** /**
 238:Drivers/STM32F1xx_HAL_Driver/Src/stm32f1xx_hal_dma.c ****   * @brief  DeInitialize the DMA peripheral.
 239:Drivers/STM32F1xx_HAL_Driver/Src/stm32f1xx_hal_dma.c ****   * @param  hdma: pointer to a DMA_HandleTypeDef structure that contains
 240:Drivers/STM32F1xx_HAL_Driver/Src/stm32f1xx_hal_dma.c ****   *               the configuration information for the specified DMA Channel.
 241:Drivers/STM32F1xx_HAL_Driver/Src/stm32f1xx_hal_dma.c ****   * @retval HAL status
 242:Drivers/STM32F1xx_HAL_Driver/Src/stm32f1xx_hal_dma.c ****   */
 243:Drivers/STM32F1xx_HAL_Driver/Src/stm32f1xx_hal_dma.c **** HAL_StatusTypeDef HAL_DMA_DeInit(DMA_HandleTypeDef *hdma)
 244:Drivers/STM32F1xx_HAL_Driver/Src/stm32f1xx_hal_dma.c **** {
 245:Drivers/STM32F1xx_HAL_Driver/Src/stm32f1xx_hal_dma.c ****   /* Check the DMA handle allocation */
 246:Drivers/STM32F1xx_HAL_Driver/Src/stm32f1xx_hal_dma.c ****   if(hdma == NULL)
 247:Drivers/STM32F1xx_HAL_Driver/Src/stm32f1xx_hal_dma.c ****   {
 248:Drivers/STM32F1xx_HAL_Driver/Src/stm32f1xx_hal_dma.c ****     return HAL_ERROR;
 249:Drivers/STM32F1xx_HAL_Driver/Src/stm32f1xx_hal_dma.c ****   }
 250:Drivers/STM32F1xx_HAL_Driver/Src/stm32f1xx_hal_dma.c **** 
 251:Drivers/STM32F1xx_HAL_Driver/Src/stm32f1xx_hal_dma.c ****   /* Check the parameters */
 252:Drivers/STM32F1xx_HAL_Driver/Src/stm32f1xx_hal_dma.c ****   assert_param(IS_DMA_ALL_INSTANCE(hdma->Instance));
 253:Drivers/STM32F1xx_HAL_Driver/Src/stm32f1xx_hal_dma.c **** 
 254:Drivers/STM32F1xx_HAL_Driver/Src/stm32f1xx_hal_dma.c ****   /* Disable the selected DMA Channelx */
 255:Drivers/STM32F1xx_HAL_Driver/Src/stm32f1xx_hal_dma.c ****   __HAL_DMA_DISABLE(hdma);
 256:Drivers/STM32F1xx_HAL_Driver/Src/stm32f1xx_hal_dma.c **** 
 257:Drivers/STM32F1xx_HAL_Driver/Src/stm32f1xx_hal_dma.c ****   /* Reset DMA Channel control register */
 258:Drivers/STM32F1xx_HAL_Driver/Src/stm32f1xx_hal_dma.c ****   hdma->Instance->CCR  = 0U;
 259:Drivers/STM32F1xx_HAL_Driver/Src/stm32f1xx_hal_dma.c **** 
 260:Drivers/STM32F1xx_HAL_Driver/Src/stm32f1xx_hal_dma.c ****   /* Reset DMA Channel Number of Data to Transfer register */
ARM GAS  /tmp/ccfkKAY2.s 			page 6


 261:Drivers/STM32F1xx_HAL_Driver/Src/stm32f1xx_hal_dma.c ****   hdma->Instance->CNDTR = 0U;
 262:Drivers/STM32F1xx_HAL_Driver/Src/stm32f1xx_hal_dma.c **** 
 263:Drivers/STM32F1xx_HAL_Driver/Src/stm32f1xx_hal_dma.c ****   /* Reset DMA Channel peripheral address register */
 264:Drivers/STM32F1xx_HAL_Driver/Src/stm32f1xx_hal_dma.c ****   hdma->Instance->CPAR  = 0U;
 265:Drivers/STM32F1xx_HAL_Driver/Src/stm32f1xx_hal_dma.c **** 
 266:Drivers/STM32F1xx_HAL_Driver/Src/stm32f1xx_hal_dma.c ****   /* Reset DMA Channel memory address register */
 267:Drivers/STM32F1xx_HAL_Driver/Src/stm32f1xx_hal_dma.c ****   hdma->Instance->CMAR = 0U;
 268:Drivers/STM32F1xx_HAL_Driver/Src/stm32f1xx_hal_dma.c **** 
 269:Drivers/STM32F1xx_HAL_Driver/Src/stm32f1xx_hal_dma.c **** #if defined (STM32F101xE) || defined (STM32F101xG) || defined (STM32F103xE) || defined (STM32F103xG
 270:Drivers/STM32F1xx_HAL_Driver/Src/stm32f1xx_hal_dma.c ****   /* calculation of the channel index */
 271:Drivers/STM32F1xx_HAL_Driver/Src/stm32f1xx_hal_dma.c ****   if ((uint32_t)(hdma->Instance) < (uint32_t)(DMA2_Channel1))
 272:Drivers/STM32F1xx_HAL_Driver/Src/stm32f1xx_hal_dma.c ****   {
 273:Drivers/STM32F1xx_HAL_Driver/Src/stm32f1xx_hal_dma.c ****     /* DMA1 */
 274:Drivers/STM32F1xx_HAL_Driver/Src/stm32f1xx_hal_dma.c ****     hdma->ChannelIndex = (((uint32_t)hdma->Instance - (uint32_t)DMA1_Channel1) / ((uint32_t)DMA1_Ch
 275:Drivers/STM32F1xx_HAL_Driver/Src/stm32f1xx_hal_dma.c ****     hdma->DmaBaseAddress = DMA1;
 276:Drivers/STM32F1xx_HAL_Driver/Src/stm32f1xx_hal_dma.c ****   }
 277:Drivers/STM32F1xx_HAL_Driver/Src/stm32f1xx_hal_dma.c ****   else 
 278:Drivers/STM32F1xx_HAL_Driver/Src/stm32f1xx_hal_dma.c ****   {
 279:Drivers/STM32F1xx_HAL_Driver/Src/stm32f1xx_hal_dma.c ****     /* DMA2 */
 280:Drivers/STM32F1xx_HAL_Driver/Src/stm32f1xx_hal_dma.c ****     hdma->ChannelIndex = (((uint32_t)hdma->Instance - (uint32_t)DMA2_Channel1) / ((uint32_t)DMA2_Ch
 281:Drivers/STM32F1xx_HAL_Driver/Src/stm32f1xx_hal_dma.c ****     hdma->DmaBaseAddress = DMA2;
 282:Drivers/STM32F1xx_HAL_Driver/Src/stm32f1xx_hal_dma.c ****   }
 283:Drivers/STM32F1xx_HAL_Driver/Src/stm32f1xx_hal_dma.c **** #else
 284:Drivers/STM32F1xx_HAL_Driver/Src/stm32f1xx_hal_dma.c ****   /* DMA1 */
 285:Drivers/STM32F1xx_HAL_Driver/Src/stm32f1xx_hal_dma.c ****   hdma->ChannelIndex = (((uint32_t)hdma->Instance - (uint32_t)DMA1_Channel1) / ((uint32_t)DMA1_Chan
 286:Drivers/STM32F1xx_HAL_Driver/Src/stm32f1xx_hal_dma.c ****   hdma->DmaBaseAddress = DMA1;
 287:Drivers/STM32F1xx_HAL_Driver/Src/stm32f1xx_hal_dma.c **** #endif /* STM32F101xE || STM32F101xG || STM32F103xE || STM32F103xG || STM32F100xE || STM32F105xC ||
 288:Drivers/STM32F1xx_HAL_Driver/Src/stm32f1xx_hal_dma.c **** 
 289:Drivers/STM32F1xx_HAL_Driver/Src/stm32f1xx_hal_dma.c ****   /* Clear all flags */
 290:Drivers/STM32F1xx_HAL_Driver/Src/stm32f1xx_hal_dma.c ****   hdma->DmaBaseAddress->IFCR = (DMA_ISR_GIF1 << (hdma->ChannelIndex));
 291:Drivers/STM32F1xx_HAL_Driver/Src/stm32f1xx_hal_dma.c **** 
 292:Drivers/STM32F1xx_HAL_Driver/Src/stm32f1xx_hal_dma.c ****   /* Initialize the error code */
 293:Drivers/STM32F1xx_HAL_Driver/Src/stm32f1xx_hal_dma.c ****   hdma->ErrorCode = HAL_DMA_ERROR_NONE;
 294:Drivers/STM32F1xx_HAL_Driver/Src/stm32f1xx_hal_dma.c **** 
 295:Drivers/STM32F1xx_HAL_Driver/Src/stm32f1xx_hal_dma.c ****   /* Initialize the DMA state */
 296:Drivers/STM32F1xx_HAL_Driver/Src/stm32f1xx_hal_dma.c ****   hdma->State = HAL_DMA_STATE_RESET;
 297:Drivers/STM32F1xx_HAL_Driver/Src/stm32f1xx_hal_dma.c **** 
 298:Drivers/STM32F1xx_HAL_Driver/Src/stm32f1xx_hal_dma.c ****   /* Release Lock */
 299:Drivers/STM32F1xx_HAL_Driver/Src/stm32f1xx_hal_dma.c ****   __HAL_UNLOCK(hdma);
 300:Drivers/STM32F1xx_HAL_Driver/Src/stm32f1xx_hal_dma.c **** 
 301:Drivers/STM32F1xx_HAL_Driver/Src/stm32f1xx_hal_dma.c ****   return HAL_OK;
 302:Drivers/STM32F1xx_HAL_Driver/Src/stm32f1xx_hal_dma.c **** }
 303:Drivers/STM32F1xx_HAL_Driver/Src/stm32f1xx_hal_dma.c **** 
 304:Drivers/STM32F1xx_HAL_Driver/Src/stm32f1xx_hal_dma.c **** /**
 305:Drivers/STM32F1xx_HAL_Driver/Src/stm32f1xx_hal_dma.c ****   * @}
 306:Drivers/STM32F1xx_HAL_Driver/Src/stm32f1xx_hal_dma.c ****   */
 307:Drivers/STM32F1xx_HAL_Driver/Src/stm32f1xx_hal_dma.c **** 
 308:Drivers/STM32F1xx_HAL_Driver/Src/stm32f1xx_hal_dma.c **** /** @defgroup DMA_Exported_Functions_Group2 Input and Output operation functions
 309:Drivers/STM32F1xx_HAL_Driver/Src/stm32f1xx_hal_dma.c ****   *  @brief   Input and Output operation functions
 310:Drivers/STM32F1xx_HAL_Driver/Src/stm32f1xx_hal_dma.c ****   *
 311:Drivers/STM32F1xx_HAL_Driver/Src/stm32f1xx_hal_dma.c **** @verbatim
 312:Drivers/STM32F1xx_HAL_Driver/Src/stm32f1xx_hal_dma.c ****  ===============================================================================
 313:Drivers/STM32F1xx_HAL_Driver/Src/stm32f1xx_hal_dma.c ****                       #####  IO operation functions  #####
 314:Drivers/STM32F1xx_HAL_Driver/Src/stm32f1xx_hal_dma.c ****  ===============================================================================
 315:Drivers/STM32F1xx_HAL_Driver/Src/stm32f1xx_hal_dma.c ****     [..]  This section provides functions allowing to:
 316:Drivers/STM32F1xx_HAL_Driver/Src/stm32f1xx_hal_dma.c ****       (+) Configure the source, destination address and data length and Start DMA transfer
 317:Drivers/STM32F1xx_HAL_Driver/Src/stm32f1xx_hal_dma.c ****       (+) Configure the source, destination address and data length and
ARM GAS  /tmp/ccfkKAY2.s 			page 7


 318:Drivers/STM32F1xx_HAL_Driver/Src/stm32f1xx_hal_dma.c ****           Start DMA transfer with interrupt
 319:Drivers/STM32F1xx_HAL_Driver/Src/stm32f1xx_hal_dma.c ****       (+) Abort DMA transfer
 320:Drivers/STM32F1xx_HAL_Driver/Src/stm32f1xx_hal_dma.c ****       (+) Poll for transfer complete
 321:Drivers/STM32F1xx_HAL_Driver/Src/stm32f1xx_hal_dma.c ****       (+) Handle DMA interrupt request
 322:Drivers/STM32F1xx_HAL_Driver/Src/stm32f1xx_hal_dma.c **** 
 323:Drivers/STM32F1xx_HAL_Driver/Src/stm32f1xx_hal_dma.c **** @endverbatim
 324:Drivers/STM32F1xx_HAL_Driver/Src/stm32f1xx_hal_dma.c ****   * @{
 325:Drivers/STM32F1xx_HAL_Driver/Src/stm32f1xx_hal_dma.c ****   */
 326:Drivers/STM32F1xx_HAL_Driver/Src/stm32f1xx_hal_dma.c **** 
 327:Drivers/STM32F1xx_HAL_Driver/Src/stm32f1xx_hal_dma.c **** /**
 328:Drivers/STM32F1xx_HAL_Driver/Src/stm32f1xx_hal_dma.c ****   * @brief  Start the DMA Transfer.
 329:Drivers/STM32F1xx_HAL_Driver/Src/stm32f1xx_hal_dma.c ****   * @param  hdma: pointer to a DMA_HandleTypeDef structure that contains
 330:Drivers/STM32F1xx_HAL_Driver/Src/stm32f1xx_hal_dma.c ****   *               the configuration information for the specified DMA Channel.
 331:Drivers/STM32F1xx_HAL_Driver/Src/stm32f1xx_hal_dma.c ****   * @param  SrcAddress: The source memory Buffer address
 332:Drivers/STM32F1xx_HAL_Driver/Src/stm32f1xx_hal_dma.c ****   * @param  DstAddress: The destination memory Buffer address
 333:Drivers/STM32F1xx_HAL_Driver/Src/stm32f1xx_hal_dma.c ****   * @param  DataLength: The length of data to be transferred from source to destination
 334:Drivers/STM32F1xx_HAL_Driver/Src/stm32f1xx_hal_dma.c ****   * @retval HAL status
 335:Drivers/STM32F1xx_HAL_Driver/Src/stm32f1xx_hal_dma.c ****   */
 336:Drivers/STM32F1xx_HAL_Driver/Src/stm32f1xx_hal_dma.c **** HAL_StatusTypeDef HAL_DMA_Start(DMA_HandleTypeDef *hdma, uint32_t SrcAddress, uint32_t DstAddress, 
 337:Drivers/STM32F1xx_HAL_Driver/Src/stm32f1xx_hal_dma.c **** {
 338:Drivers/STM32F1xx_HAL_Driver/Src/stm32f1xx_hal_dma.c ****   HAL_StatusTypeDef status = HAL_OK;
 339:Drivers/STM32F1xx_HAL_Driver/Src/stm32f1xx_hal_dma.c **** 
 340:Drivers/STM32F1xx_HAL_Driver/Src/stm32f1xx_hal_dma.c ****   /* Check the parameters */
 341:Drivers/STM32F1xx_HAL_Driver/Src/stm32f1xx_hal_dma.c ****   assert_param(IS_DMA_BUFFER_SIZE(DataLength));
 342:Drivers/STM32F1xx_HAL_Driver/Src/stm32f1xx_hal_dma.c **** 
 343:Drivers/STM32F1xx_HAL_Driver/Src/stm32f1xx_hal_dma.c ****   /* Process locked */
 344:Drivers/STM32F1xx_HAL_Driver/Src/stm32f1xx_hal_dma.c ****   __HAL_LOCK(hdma);
 345:Drivers/STM32F1xx_HAL_Driver/Src/stm32f1xx_hal_dma.c **** 
 346:Drivers/STM32F1xx_HAL_Driver/Src/stm32f1xx_hal_dma.c ****   if(HAL_DMA_STATE_READY == hdma->State)
 347:Drivers/STM32F1xx_HAL_Driver/Src/stm32f1xx_hal_dma.c ****   {
 348:Drivers/STM32F1xx_HAL_Driver/Src/stm32f1xx_hal_dma.c ****     /* Change DMA peripheral state */
 349:Drivers/STM32F1xx_HAL_Driver/Src/stm32f1xx_hal_dma.c ****     hdma->State = HAL_DMA_STATE_BUSY;
 350:Drivers/STM32F1xx_HAL_Driver/Src/stm32f1xx_hal_dma.c ****     hdma->ErrorCode = HAL_DMA_ERROR_NONE;
 351:Drivers/STM32F1xx_HAL_Driver/Src/stm32f1xx_hal_dma.c ****             
 352:Drivers/STM32F1xx_HAL_Driver/Src/stm32f1xx_hal_dma.c ****     /* Disable the peripheral */
 353:Drivers/STM32F1xx_HAL_Driver/Src/stm32f1xx_hal_dma.c ****     __HAL_DMA_DISABLE(hdma);
 354:Drivers/STM32F1xx_HAL_Driver/Src/stm32f1xx_hal_dma.c ****     
 355:Drivers/STM32F1xx_HAL_Driver/Src/stm32f1xx_hal_dma.c ****     /* Configure the source, destination address and the data length & clear flags*/
 356:Drivers/STM32F1xx_HAL_Driver/Src/stm32f1xx_hal_dma.c ****     DMA_SetConfig(hdma, SrcAddress, DstAddress, DataLength);
 357:Drivers/STM32F1xx_HAL_Driver/Src/stm32f1xx_hal_dma.c ****     
 358:Drivers/STM32F1xx_HAL_Driver/Src/stm32f1xx_hal_dma.c ****     /* Enable the Peripheral */
 359:Drivers/STM32F1xx_HAL_Driver/Src/stm32f1xx_hal_dma.c ****     __HAL_DMA_ENABLE(hdma);
 360:Drivers/STM32F1xx_HAL_Driver/Src/stm32f1xx_hal_dma.c ****   }
 361:Drivers/STM32F1xx_HAL_Driver/Src/stm32f1xx_hal_dma.c ****   else
 362:Drivers/STM32F1xx_HAL_Driver/Src/stm32f1xx_hal_dma.c ****   {
 363:Drivers/STM32F1xx_HAL_Driver/Src/stm32f1xx_hal_dma.c ****    /* Process Unlocked */
 364:Drivers/STM32F1xx_HAL_Driver/Src/stm32f1xx_hal_dma.c ****    __HAL_UNLOCK(hdma);  
 365:Drivers/STM32F1xx_HAL_Driver/Src/stm32f1xx_hal_dma.c ****    status = HAL_BUSY;
 366:Drivers/STM32F1xx_HAL_Driver/Src/stm32f1xx_hal_dma.c ****   }  
 367:Drivers/STM32F1xx_HAL_Driver/Src/stm32f1xx_hal_dma.c ****   return status;
 368:Drivers/STM32F1xx_HAL_Driver/Src/stm32f1xx_hal_dma.c **** }
 369:Drivers/STM32F1xx_HAL_Driver/Src/stm32f1xx_hal_dma.c **** 
 370:Drivers/STM32F1xx_HAL_Driver/Src/stm32f1xx_hal_dma.c **** /**
 371:Drivers/STM32F1xx_HAL_Driver/Src/stm32f1xx_hal_dma.c ****   * @brief  Start the DMA Transfer with interrupt enabled.
 372:Drivers/STM32F1xx_HAL_Driver/Src/stm32f1xx_hal_dma.c ****   * @param  hdma: pointer to a DMA_HandleTypeDef structure that contains
 373:Drivers/STM32F1xx_HAL_Driver/Src/stm32f1xx_hal_dma.c ****   *               the configuration information for the specified DMA Channel.
 374:Drivers/STM32F1xx_HAL_Driver/Src/stm32f1xx_hal_dma.c ****   * @param  SrcAddress: The source memory Buffer address
ARM GAS  /tmp/ccfkKAY2.s 			page 8


 375:Drivers/STM32F1xx_HAL_Driver/Src/stm32f1xx_hal_dma.c ****   * @param  DstAddress: The destination memory Buffer address
 376:Drivers/STM32F1xx_HAL_Driver/Src/stm32f1xx_hal_dma.c ****   * @param  DataLength: The length of data to be transferred from source to destination
 377:Drivers/STM32F1xx_HAL_Driver/Src/stm32f1xx_hal_dma.c ****   * @retval HAL status
 378:Drivers/STM32F1xx_HAL_Driver/Src/stm32f1xx_hal_dma.c ****   */
 379:Drivers/STM32F1xx_HAL_Driver/Src/stm32f1xx_hal_dma.c **** HAL_StatusTypeDef HAL_DMA_Start_IT(DMA_HandleTypeDef *hdma, uint32_t SrcAddress, uint32_t DstAddres
 380:Drivers/STM32F1xx_HAL_Driver/Src/stm32f1xx_hal_dma.c **** {
 381:Drivers/STM32F1xx_HAL_Driver/Src/stm32f1xx_hal_dma.c ****   HAL_StatusTypeDef status = HAL_OK;
 382:Drivers/STM32F1xx_HAL_Driver/Src/stm32f1xx_hal_dma.c **** 
 383:Drivers/STM32F1xx_HAL_Driver/Src/stm32f1xx_hal_dma.c ****   /* Check the parameters */
 384:Drivers/STM32F1xx_HAL_Driver/Src/stm32f1xx_hal_dma.c ****   assert_param(IS_DMA_BUFFER_SIZE(DataLength));
 385:Drivers/STM32F1xx_HAL_Driver/Src/stm32f1xx_hal_dma.c **** 
 386:Drivers/STM32F1xx_HAL_Driver/Src/stm32f1xx_hal_dma.c ****   /* Process locked */
 387:Drivers/STM32F1xx_HAL_Driver/Src/stm32f1xx_hal_dma.c ****   __HAL_LOCK(hdma);
 388:Drivers/STM32F1xx_HAL_Driver/Src/stm32f1xx_hal_dma.c ****   
 389:Drivers/STM32F1xx_HAL_Driver/Src/stm32f1xx_hal_dma.c ****   if(HAL_DMA_STATE_READY == hdma->State)
 390:Drivers/STM32F1xx_HAL_Driver/Src/stm32f1xx_hal_dma.c ****   {
 391:Drivers/STM32F1xx_HAL_Driver/Src/stm32f1xx_hal_dma.c ****     /* Change DMA peripheral state */
 392:Drivers/STM32F1xx_HAL_Driver/Src/stm32f1xx_hal_dma.c ****     hdma->State = HAL_DMA_STATE_BUSY;
 393:Drivers/STM32F1xx_HAL_Driver/Src/stm32f1xx_hal_dma.c ****     hdma->ErrorCode = HAL_DMA_ERROR_NONE;
 394:Drivers/STM32F1xx_HAL_Driver/Src/stm32f1xx_hal_dma.c ****     
 395:Drivers/STM32F1xx_HAL_Driver/Src/stm32f1xx_hal_dma.c ****     /* Disable the peripheral */
 396:Drivers/STM32F1xx_HAL_Driver/Src/stm32f1xx_hal_dma.c ****     __HAL_DMA_DISABLE(hdma);
 397:Drivers/STM32F1xx_HAL_Driver/Src/stm32f1xx_hal_dma.c ****     
 398:Drivers/STM32F1xx_HAL_Driver/Src/stm32f1xx_hal_dma.c ****     /* Configure the source, destination address and the data length & clear flags*/
 399:Drivers/STM32F1xx_HAL_Driver/Src/stm32f1xx_hal_dma.c ****     DMA_SetConfig(hdma, SrcAddress, DstAddress, DataLength);
 400:Drivers/STM32F1xx_HAL_Driver/Src/stm32f1xx_hal_dma.c ****     
 401:Drivers/STM32F1xx_HAL_Driver/Src/stm32f1xx_hal_dma.c ****     /* Enable the transfer complete interrupt */
 402:Drivers/STM32F1xx_HAL_Driver/Src/stm32f1xx_hal_dma.c ****     /* Enable the transfer Error interrupt */
 403:Drivers/STM32F1xx_HAL_Driver/Src/stm32f1xx_hal_dma.c ****     if(NULL != hdma->XferHalfCpltCallback)
 404:Drivers/STM32F1xx_HAL_Driver/Src/stm32f1xx_hal_dma.c ****     {
 405:Drivers/STM32F1xx_HAL_Driver/Src/stm32f1xx_hal_dma.c ****       /* Enable the Half transfer complete interrupt as well */
 406:Drivers/STM32F1xx_HAL_Driver/Src/stm32f1xx_hal_dma.c ****       __HAL_DMA_ENABLE_IT(hdma, (DMA_IT_TC | DMA_IT_HT | DMA_IT_TE));
 407:Drivers/STM32F1xx_HAL_Driver/Src/stm32f1xx_hal_dma.c ****     }
 408:Drivers/STM32F1xx_HAL_Driver/Src/stm32f1xx_hal_dma.c ****     else
 409:Drivers/STM32F1xx_HAL_Driver/Src/stm32f1xx_hal_dma.c ****     {
 410:Drivers/STM32F1xx_HAL_Driver/Src/stm32f1xx_hal_dma.c ****       __HAL_DMA_DISABLE_IT(hdma, DMA_IT_HT);
 411:Drivers/STM32F1xx_HAL_Driver/Src/stm32f1xx_hal_dma.c ****       __HAL_DMA_ENABLE_IT(hdma, (DMA_IT_TC | DMA_IT_TE));
 412:Drivers/STM32F1xx_HAL_Driver/Src/stm32f1xx_hal_dma.c ****     }
 413:Drivers/STM32F1xx_HAL_Driver/Src/stm32f1xx_hal_dma.c ****     /* Enable the Peripheral */
 414:Drivers/STM32F1xx_HAL_Driver/Src/stm32f1xx_hal_dma.c ****     __HAL_DMA_ENABLE(hdma);
 415:Drivers/STM32F1xx_HAL_Driver/Src/stm32f1xx_hal_dma.c ****   }
 416:Drivers/STM32F1xx_HAL_Driver/Src/stm32f1xx_hal_dma.c ****   else
 417:Drivers/STM32F1xx_HAL_Driver/Src/stm32f1xx_hal_dma.c ****   {      
 418:Drivers/STM32F1xx_HAL_Driver/Src/stm32f1xx_hal_dma.c ****     /* Process Unlocked */
 419:Drivers/STM32F1xx_HAL_Driver/Src/stm32f1xx_hal_dma.c ****     __HAL_UNLOCK(hdma); 
 420:Drivers/STM32F1xx_HAL_Driver/Src/stm32f1xx_hal_dma.c **** 
 421:Drivers/STM32F1xx_HAL_Driver/Src/stm32f1xx_hal_dma.c ****     /* Remain BUSY */
 422:Drivers/STM32F1xx_HAL_Driver/Src/stm32f1xx_hal_dma.c ****     status = HAL_BUSY;
 423:Drivers/STM32F1xx_HAL_Driver/Src/stm32f1xx_hal_dma.c ****   }    
 424:Drivers/STM32F1xx_HAL_Driver/Src/stm32f1xx_hal_dma.c ****   return status;
 425:Drivers/STM32F1xx_HAL_Driver/Src/stm32f1xx_hal_dma.c **** }
 426:Drivers/STM32F1xx_HAL_Driver/Src/stm32f1xx_hal_dma.c **** 
 427:Drivers/STM32F1xx_HAL_Driver/Src/stm32f1xx_hal_dma.c **** /**
 428:Drivers/STM32F1xx_HAL_Driver/Src/stm32f1xx_hal_dma.c ****   * @brief  Abort the DMA Transfer.
 429:Drivers/STM32F1xx_HAL_Driver/Src/stm32f1xx_hal_dma.c ****   * @param  hdma: pointer to a DMA_HandleTypeDef structure that contains
 430:Drivers/STM32F1xx_HAL_Driver/Src/stm32f1xx_hal_dma.c ****   *               the configuration information for the specified DMA Channel.
 431:Drivers/STM32F1xx_HAL_Driver/Src/stm32f1xx_hal_dma.c ****   * @retval HAL status
ARM GAS  /tmp/ccfkKAY2.s 			page 9


 432:Drivers/STM32F1xx_HAL_Driver/Src/stm32f1xx_hal_dma.c ****   */
 433:Drivers/STM32F1xx_HAL_Driver/Src/stm32f1xx_hal_dma.c **** HAL_StatusTypeDef HAL_DMA_Abort(DMA_HandleTypeDef *hdma)
 434:Drivers/STM32F1xx_HAL_Driver/Src/stm32f1xx_hal_dma.c **** {
 435:Drivers/STM32F1xx_HAL_Driver/Src/stm32f1xx_hal_dma.c ****   HAL_StatusTypeDef status = HAL_OK;
 436:Drivers/STM32F1xx_HAL_Driver/Src/stm32f1xx_hal_dma.c **** 
 437:Drivers/STM32F1xx_HAL_Driver/Src/stm32f1xx_hal_dma.c ****   /* Disable DMA IT */
 438:Drivers/STM32F1xx_HAL_Driver/Src/stm32f1xx_hal_dma.c ****   __HAL_DMA_DISABLE_IT(hdma, (DMA_IT_TC | DMA_IT_HT | DMA_IT_TE));
 439:Drivers/STM32F1xx_HAL_Driver/Src/stm32f1xx_hal_dma.c ****     
 440:Drivers/STM32F1xx_HAL_Driver/Src/stm32f1xx_hal_dma.c ****   /* Disable the channel */
 441:Drivers/STM32F1xx_HAL_Driver/Src/stm32f1xx_hal_dma.c ****   __HAL_DMA_DISABLE(hdma);
 442:Drivers/STM32F1xx_HAL_Driver/Src/stm32f1xx_hal_dma.c ****     
 443:Drivers/STM32F1xx_HAL_Driver/Src/stm32f1xx_hal_dma.c ****   /* Clear all flags */
 444:Drivers/STM32F1xx_HAL_Driver/Src/stm32f1xx_hal_dma.c ****   hdma->DmaBaseAddress->IFCR = (DMA_ISR_GIF1 << hdma->ChannelIndex);
 445:Drivers/STM32F1xx_HAL_Driver/Src/stm32f1xx_hal_dma.c **** 
 446:Drivers/STM32F1xx_HAL_Driver/Src/stm32f1xx_hal_dma.c ****   /* Change the DMA state */
 447:Drivers/STM32F1xx_HAL_Driver/Src/stm32f1xx_hal_dma.c ****   hdma->State = HAL_DMA_STATE_READY;
 448:Drivers/STM32F1xx_HAL_Driver/Src/stm32f1xx_hal_dma.c **** 
 449:Drivers/STM32F1xx_HAL_Driver/Src/stm32f1xx_hal_dma.c ****   /* Process Unlocked */
 450:Drivers/STM32F1xx_HAL_Driver/Src/stm32f1xx_hal_dma.c ****   __HAL_UNLOCK(hdma);      
 451:Drivers/STM32F1xx_HAL_Driver/Src/stm32f1xx_hal_dma.c ****   
 452:Drivers/STM32F1xx_HAL_Driver/Src/stm32f1xx_hal_dma.c ****   return status; 
 453:Drivers/STM32F1xx_HAL_Driver/Src/stm32f1xx_hal_dma.c **** }
 454:Drivers/STM32F1xx_HAL_Driver/Src/stm32f1xx_hal_dma.c **** 
 455:Drivers/STM32F1xx_HAL_Driver/Src/stm32f1xx_hal_dma.c **** /**
 456:Drivers/STM32F1xx_HAL_Driver/Src/stm32f1xx_hal_dma.c ****   * @brief  Aborts the DMA Transfer in Interrupt mode.
 457:Drivers/STM32F1xx_HAL_Driver/Src/stm32f1xx_hal_dma.c ****   * @param  hdma  : pointer to a DMA_HandleTypeDef structure that contains
 458:Drivers/STM32F1xx_HAL_Driver/Src/stm32f1xx_hal_dma.c ****   *                 the configuration information for the specified DMA Channel.
 459:Drivers/STM32F1xx_HAL_Driver/Src/stm32f1xx_hal_dma.c ****   * @retval HAL status
 460:Drivers/STM32F1xx_HAL_Driver/Src/stm32f1xx_hal_dma.c ****   */
 461:Drivers/STM32F1xx_HAL_Driver/Src/stm32f1xx_hal_dma.c **** HAL_StatusTypeDef HAL_DMA_Abort_IT(DMA_HandleTypeDef *hdma)
 462:Drivers/STM32F1xx_HAL_Driver/Src/stm32f1xx_hal_dma.c **** {  
 463:Drivers/STM32F1xx_HAL_Driver/Src/stm32f1xx_hal_dma.c ****   HAL_StatusTypeDef status = HAL_OK;
 464:Drivers/STM32F1xx_HAL_Driver/Src/stm32f1xx_hal_dma.c ****   
 465:Drivers/STM32F1xx_HAL_Driver/Src/stm32f1xx_hal_dma.c ****   if(HAL_DMA_STATE_BUSY != hdma->State)
 466:Drivers/STM32F1xx_HAL_Driver/Src/stm32f1xx_hal_dma.c ****   {
 467:Drivers/STM32F1xx_HAL_Driver/Src/stm32f1xx_hal_dma.c ****     /* no transfer ongoing */
 468:Drivers/STM32F1xx_HAL_Driver/Src/stm32f1xx_hal_dma.c ****     hdma->ErrorCode = HAL_DMA_ERROR_NO_XFER;
 469:Drivers/STM32F1xx_HAL_Driver/Src/stm32f1xx_hal_dma.c ****         
 470:Drivers/STM32F1xx_HAL_Driver/Src/stm32f1xx_hal_dma.c ****     status = HAL_ERROR;
 471:Drivers/STM32F1xx_HAL_Driver/Src/stm32f1xx_hal_dma.c ****   }
 472:Drivers/STM32F1xx_HAL_Driver/Src/stm32f1xx_hal_dma.c ****   else
 473:Drivers/STM32F1xx_HAL_Driver/Src/stm32f1xx_hal_dma.c ****   { 
 474:Drivers/STM32F1xx_HAL_Driver/Src/stm32f1xx_hal_dma.c ****     /* Disable DMA IT */
 475:Drivers/STM32F1xx_HAL_Driver/Src/stm32f1xx_hal_dma.c ****     __HAL_DMA_DISABLE_IT(hdma, (DMA_IT_TC | DMA_IT_HT | DMA_IT_TE));
 476:Drivers/STM32F1xx_HAL_Driver/Src/stm32f1xx_hal_dma.c **** 
 477:Drivers/STM32F1xx_HAL_Driver/Src/stm32f1xx_hal_dma.c ****     /* Disable the channel */
 478:Drivers/STM32F1xx_HAL_Driver/Src/stm32f1xx_hal_dma.c ****     __HAL_DMA_DISABLE(hdma);
 479:Drivers/STM32F1xx_HAL_Driver/Src/stm32f1xx_hal_dma.c **** 
 480:Drivers/STM32F1xx_HAL_Driver/Src/stm32f1xx_hal_dma.c ****     /* Clear all flags */
 481:Drivers/STM32F1xx_HAL_Driver/Src/stm32f1xx_hal_dma.c ****     __HAL_DMA_CLEAR_FLAG(hdma, __HAL_DMA_GET_GI_FLAG_INDEX(hdma));
 482:Drivers/STM32F1xx_HAL_Driver/Src/stm32f1xx_hal_dma.c **** 
 483:Drivers/STM32F1xx_HAL_Driver/Src/stm32f1xx_hal_dma.c ****     /* Change the DMA state */
 484:Drivers/STM32F1xx_HAL_Driver/Src/stm32f1xx_hal_dma.c ****     hdma->State = HAL_DMA_STATE_READY;
 485:Drivers/STM32F1xx_HAL_Driver/Src/stm32f1xx_hal_dma.c **** 
 486:Drivers/STM32F1xx_HAL_Driver/Src/stm32f1xx_hal_dma.c ****     /* Process Unlocked */
 487:Drivers/STM32F1xx_HAL_Driver/Src/stm32f1xx_hal_dma.c ****     __HAL_UNLOCK(hdma);
 488:Drivers/STM32F1xx_HAL_Driver/Src/stm32f1xx_hal_dma.c **** 
ARM GAS  /tmp/ccfkKAY2.s 			page 10


 489:Drivers/STM32F1xx_HAL_Driver/Src/stm32f1xx_hal_dma.c ****     /* Call User Abort callback */
 490:Drivers/STM32F1xx_HAL_Driver/Src/stm32f1xx_hal_dma.c ****     if(hdma->XferAbortCallback != NULL)
 491:Drivers/STM32F1xx_HAL_Driver/Src/stm32f1xx_hal_dma.c ****     {
 492:Drivers/STM32F1xx_HAL_Driver/Src/stm32f1xx_hal_dma.c ****       hdma->XferAbortCallback(hdma);
 493:Drivers/STM32F1xx_HAL_Driver/Src/stm32f1xx_hal_dma.c ****     } 
 494:Drivers/STM32F1xx_HAL_Driver/Src/stm32f1xx_hal_dma.c ****   }
 495:Drivers/STM32F1xx_HAL_Driver/Src/stm32f1xx_hal_dma.c ****   return status;
 496:Drivers/STM32F1xx_HAL_Driver/Src/stm32f1xx_hal_dma.c **** }
 497:Drivers/STM32F1xx_HAL_Driver/Src/stm32f1xx_hal_dma.c **** 
 498:Drivers/STM32F1xx_HAL_Driver/Src/stm32f1xx_hal_dma.c **** /**
 499:Drivers/STM32F1xx_HAL_Driver/Src/stm32f1xx_hal_dma.c ****   * @brief  Polling for transfer complete.
 500:Drivers/STM32F1xx_HAL_Driver/Src/stm32f1xx_hal_dma.c ****   * @param  hdma:    pointer to a DMA_HandleTypeDef structure that contains
 501:Drivers/STM32F1xx_HAL_Driver/Src/stm32f1xx_hal_dma.c ****   *                  the configuration information for the specified DMA Channel.
 502:Drivers/STM32F1xx_HAL_Driver/Src/stm32f1xx_hal_dma.c ****   * @param  CompleteLevel: Specifies the DMA level complete.
 503:Drivers/STM32F1xx_HAL_Driver/Src/stm32f1xx_hal_dma.c ****   * @param  Timeout:       Timeout duration.
 504:Drivers/STM32F1xx_HAL_Driver/Src/stm32f1xx_hal_dma.c ****   * @retval HAL status
 505:Drivers/STM32F1xx_HAL_Driver/Src/stm32f1xx_hal_dma.c ****   */
 506:Drivers/STM32F1xx_HAL_Driver/Src/stm32f1xx_hal_dma.c **** HAL_StatusTypeDef HAL_DMA_PollForTransfer(DMA_HandleTypeDef *hdma, uint32_t CompleteLevel, uint32_t
 507:Drivers/STM32F1xx_HAL_Driver/Src/stm32f1xx_hal_dma.c **** {
 508:Drivers/STM32F1xx_HAL_Driver/Src/stm32f1xx_hal_dma.c ****   uint32_t temp;
 509:Drivers/STM32F1xx_HAL_Driver/Src/stm32f1xx_hal_dma.c ****   uint32_t tickstart = 0U;
 510:Drivers/STM32F1xx_HAL_Driver/Src/stm32f1xx_hal_dma.c **** 
 511:Drivers/STM32F1xx_HAL_Driver/Src/stm32f1xx_hal_dma.c ****   if(HAL_DMA_STATE_BUSY != hdma->State)
 512:Drivers/STM32F1xx_HAL_Driver/Src/stm32f1xx_hal_dma.c ****   {
 513:Drivers/STM32F1xx_HAL_Driver/Src/stm32f1xx_hal_dma.c ****     /* no transfer ongoing */
 514:Drivers/STM32F1xx_HAL_Driver/Src/stm32f1xx_hal_dma.c ****     hdma->ErrorCode = HAL_DMA_ERROR_NO_XFER;
 515:Drivers/STM32F1xx_HAL_Driver/Src/stm32f1xx_hal_dma.c ****     __HAL_UNLOCK(hdma);
 516:Drivers/STM32F1xx_HAL_Driver/Src/stm32f1xx_hal_dma.c ****     return HAL_ERROR;
 517:Drivers/STM32F1xx_HAL_Driver/Src/stm32f1xx_hal_dma.c ****   }
 518:Drivers/STM32F1xx_HAL_Driver/Src/stm32f1xx_hal_dma.c **** 
 519:Drivers/STM32F1xx_HAL_Driver/Src/stm32f1xx_hal_dma.c ****   /* Polling mode not supported in circular mode */
 520:Drivers/STM32F1xx_HAL_Driver/Src/stm32f1xx_hal_dma.c ****   if (RESET != (hdma->Instance->CCR & DMA_CCR_CIRC))
 521:Drivers/STM32F1xx_HAL_Driver/Src/stm32f1xx_hal_dma.c ****   {
 522:Drivers/STM32F1xx_HAL_Driver/Src/stm32f1xx_hal_dma.c ****     hdma->ErrorCode = HAL_DMA_ERROR_NOT_SUPPORTED;
 523:Drivers/STM32F1xx_HAL_Driver/Src/stm32f1xx_hal_dma.c ****     return HAL_ERROR;
 524:Drivers/STM32F1xx_HAL_Driver/Src/stm32f1xx_hal_dma.c ****   }
 525:Drivers/STM32F1xx_HAL_Driver/Src/stm32f1xx_hal_dma.c ****   
 526:Drivers/STM32F1xx_HAL_Driver/Src/stm32f1xx_hal_dma.c ****   /* Get the level transfer complete flag */
 527:Drivers/STM32F1xx_HAL_Driver/Src/stm32f1xx_hal_dma.c ****   if(CompleteLevel == HAL_DMA_FULL_TRANSFER)
 528:Drivers/STM32F1xx_HAL_Driver/Src/stm32f1xx_hal_dma.c ****   {
 529:Drivers/STM32F1xx_HAL_Driver/Src/stm32f1xx_hal_dma.c ****     /* Transfer Complete flag */
 530:Drivers/STM32F1xx_HAL_Driver/Src/stm32f1xx_hal_dma.c ****     temp = __HAL_DMA_GET_TC_FLAG_INDEX(hdma);
 531:Drivers/STM32F1xx_HAL_Driver/Src/stm32f1xx_hal_dma.c ****   }
 532:Drivers/STM32F1xx_HAL_Driver/Src/stm32f1xx_hal_dma.c ****   else
 533:Drivers/STM32F1xx_HAL_Driver/Src/stm32f1xx_hal_dma.c ****   {
 534:Drivers/STM32F1xx_HAL_Driver/Src/stm32f1xx_hal_dma.c ****     /* Half Transfer Complete flag */
 535:Drivers/STM32F1xx_HAL_Driver/Src/stm32f1xx_hal_dma.c ****     temp = __HAL_DMA_GET_HT_FLAG_INDEX(hdma);
 536:Drivers/STM32F1xx_HAL_Driver/Src/stm32f1xx_hal_dma.c ****   }
 537:Drivers/STM32F1xx_HAL_Driver/Src/stm32f1xx_hal_dma.c **** 
 538:Drivers/STM32F1xx_HAL_Driver/Src/stm32f1xx_hal_dma.c ****   /* Get tick */
 539:Drivers/STM32F1xx_HAL_Driver/Src/stm32f1xx_hal_dma.c ****   tickstart = HAL_GetTick();
 540:Drivers/STM32F1xx_HAL_Driver/Src/stm32f1xx_hal_dma.c **** 
 541:Drivers/STM32F1xx_HAL_Driver/Src/stm32f1xx_hal_dma.c ****   while(__HAL_DMA_GET_FLAG(hdma, temp) == RESET)
 542:Drivers/STM32F1xx_HAL_Driver/Src/stm32f1xx_hal_dma.c ****   {
 543:Drivers/STM32F1xx_HAL_Driver/Src/stm32f1xx_hal_dma.c ****     if((__HAL_DMA_GET_FLAG(hdma, __HAL_DMA_GET_TE_FLAG_INDEX(hdma)) != RESET))
 544:Drivers/STM32F1xx_HAL_Driver/Src/stm32f1xx_hal_dma.c ****     {
 545:Drivers/STM32F1xx_HAL_Driver/Src/stm32f1xx_hal_dma.c ****       /* When a DMA transfer error occurs */
ARM GAS  /tmp/ccfkKAY2.s 			page 11


 546:Drivers/STM32F1xx_HAL_Driver/Src/stm32f1xx_hal_dma.c ****       /* A hardware clear of its EN bits is performed */
 547:Drivers/STM32F1xx_HAL_Driver/Src/stm32f1xx_hal_dma.c ****       /* Clear all flags */
 548:Drivers/STM32F1xx_HAL_Driver/Src/stm32f1xx_hal_dma.c ****       hdma->DmaBaseAddress->IFCR = (DMA_ISR_GIF1 << hdma->ChannelIndex);
 549:Drivers/STM32F1xx_HAL_Driver/Src/stm32f1xx_hal_dma.c **** 
 550:Drivers/STM32F1xx_HAL_Driver/Src/stm32f1xx_hal_dma.c ****       /* Update error code */
 551:Drivers/STM32F1xx_HAL_Driver/Src/stm32f1xx_hal_dma.c ****       SET_BIT(hdma->ErrorCode, HAL_DMA_ERROR_TE);
 552:Drivers/STM32F1xx_HAL_Driver/Src/stm32f1xx_hal_dma.c **** 
 553:Drivers/STM32F1xx_HAL_Driver/Src/stm32f1xx_hal_dma.c ****       /* Change the DMA state */
 554:Drivers/STM32F1xx_HAL_Driver/Src/stm32f1xx_hal_dma.c ****       hdma->State= HAL_DMA_STATE_READY;
 555:Drivers/STM32F1xx_HAL_Driver/Src/stm32f1xx_hal_dma.c **** 
 556:Drivers/STM32F1xx_HAL_Driver/Src/stm32f1xx_hal_dma.c ****       /* Process Unlocked */
 557:Drivers/STM32F1xx_HAL_Driver/Src/stm32f1xx_hal_dma.c ****       __HAL_UNLOCK(hdma);
 558:Drivers/STM32F1xx_HAL_Driver/Src/stm32f1xx_hal_dma.c **** 
 559:Drivers/STM32F1xx_HAL_Driver/Src/stm32f1xx_hal_dma.c ****       return HAL_ERROR;
 560:Drivers/STM32F1xx_HAL_Driver/Src/stm32f1xx_hal_dma.c ****     }
 561:Drivers/STM32F1xx_HAL_Driver/Src/stm32f1xx_hal_dma.c ****     /* Check for the Timeout */
 562:Drivers/STM32F1xx_HAL_Driver/Src/stm32f1xx_hal_dma.c ****     if(Timeout != HAL_MAX_DELAY)
 563:Drivers/STM32F1xx_HAL_Driver/Src/stm32f1xx_hal_dma.c ****     {
 564:Drivers/STM32F1xx_HAL_Driver/Src/stm32f1xx_hal_dma.c ****       if((Timeout == 0U) || ((HAL_GetTick() - tickstart) > Timeout))
 565:Drivers/STM32F1xx_HAL_Driver/Src/stm32f1xx_hal_dma.c ****       {
 566:Drivers/STM32F1xx_HAL_Driver/Src/stm32f1xx_hal_dma.c ****         /* Update error code */
 567:Drivers/STM32F1xx_HAL_Driver/Src/stm32f1xx_hal_dma.c ****         SET_BIT(hdma->ErrorCode, HAL_DMA_ERROR_TIMEOUT);
 568:Drivers/STM32F1xx_HAL_Driver/Src/stm32f1xx_hal_dma.c **** 
 569:Drivers/STM32F1xx_HAL_Driver/Src/stm32f1xx_hal_dma.c ****         /* Change the DMA state */
 570:Drivers/STM32F1xx_HAL_Driver/Src/stm32f1xx_hal_dma.c ****         hdma->State = HAL_DMA_STATE_READY;
 571:Drivers/STM32F1xx_HAL_Driver/Src/stm32f1xx_hal_dma.c **** 
 572:Drivers/STM32F1xx_HAL_Driver/Src/stm32f1xx_hal_dma.c ****         /* Process Unlocked */
 573:Drivers/STM32F1xx_HAL_Driver/Src/stm32f1xx_hal_dma.c ****         __HAL_UNLOCK(hdma);
 574:Drivers/STM32F1xx_HAL_Driver/Src/stm32f1xx_hal_dma.c **** 
 575:Drivers/STM32F1xx_HAL_Driver/Src/stm32f1xx_hal_dma.c ****         return HAL_ERROR;
 576:Drivers/STM32F1xx_HAL_Driver/Src/stm32f1xx_hal_dma.c ****       }
 577:Drivers/STM32F1xx_HAL_Driver/Src/stm32f1xx_hal_dma.c ****     }
 578:Drivers/STM32F1xx_HAL_Driver/Src/stm32f1xx_hal_dma.c ****   }
 579:Drivers/STM32F1xx_HAL_Driver/Src/stm32f1xx_hal_dma.c **** 
 580:Drivers/STM32F1xx_HAL_Driver/Src/stm32f1xx_hal_dma.c ****   if(CompleteLevel == HAL_DMA_FULL_TRANSFER)
 581:Drivers/STM32F1xx_HAL_Driver/Src/stm32f1xx_hal_dma.c ****   {
 582:Drivers/STM32F1xx_HAL_Driver/Src/stm32f1xx_hal_dma.c ****     /* Clear the transfer complete flag */
 583:Drivers/STM32F1xx_HAL_Driver/Src/stm32f1xx_hal_dma.c ****     __HAL_DMA_CLEAR_FLAG(hdma, __HAL_DMA_GET_TC_FLAG_INDEX(hdma));
 584:Drivers/STM32F1xx_HAL_Driver/Src/stm32f1xx_hal_dma.c **** 
 585:Drivers/STM32F1xx_HAL_Driver/Src/stm32f1xx_hal_dma.c ****     /* The selected Channelx EN bit is cleared (DMA is disabled and
 586:Drivers/STM32F1xx_HAL_Driver/Src/stm32f1xx_hal_dma.c ****     all transfers are complete) */
 587:Drivers/STM32F1xx_HAL_Driver/Src/stm32f1xx_hal_dma.c ****     hdma->State = HAL_DMA_STATE_READY;
 588:Drivers/STM32F1xx_HAL_Driver/Src/stm32f1xx_hal_dma.c ****   }
 589:Drivers/STM32F1xx_HAL_Driver/Src/stm32f1xx_hal_dma.c ****   else
 590:Drivers/STM32F1xx_HAL_Driver/Src/stm32f1xx_hal_dma.c ****   {
 591:Drivers/STM32F1xx_HAL_Driver/Src/stm32f1xx_hal_dma.c ****     /* Clear the half transfer complete flag */
 592:Drivers/STM32F1xx_HAL_Driver/Src/stm32f1xx_hal_dma.c ****     __HAL_DMA_CLEAR_FLAG(hdma, __HAL_DMA_GET_HT_FLAG_INDEX(hdma));
 593:Drivers/STM32F1xx_HAL_Driver/Src/stm32f1xx_hal_dma.c ****   }
 594:Drivers/STM32F1xx_HAL_Driver/Src/stm32f1xx_hal_dma.c ****   
 595:Drivers/STM32F1xx_HAL_Driver/Src/stm32f1xx_hal_dma.c ****   /* Process unlocked */
 596:Drivers/STM32F1xx_HAL_Driver/Src/stm32f1xx_hal_dma.c ****   __HAL_UNLOCK(hdma);
 597:Drivers/STM32F1xx_HAL_Driver/Src/stm32f1xx_hal_dma.c **** 
 598:Drivers/STM32F1xx_HAL_Driver/Src/stm32f1xx_hal_dma.c ****   return HAL_OK;
 599:Drivers/STM32F1xx_HAL_Driver/Src/stm32f1xx_hal_dma.c **** }
 600:Drivers/STM32F1xx_HAL_Driver/Src/stm32f1xx_hal_dma.c **** 
 601:Drivers/STM32F1xx_HAL_Driver/Src/stm32f1xx_hal_dma.c **** /**
 602:Drivers/STM32F1xx_HAL_Driver/Src/stm32f1xx_hal_dma.c ****   * @brief  Handles DMA interrupt request.
ARM GAS  /tmp/ccfkKAY2.s 			page 12


 603:Drivers/STM32F1xx_HAL_Driver/Src/stm32f1xx_hal_dma.c ****   * @param  hdma: pointer to a DMA_HandleTypeDef structure that contains
 604:Drivers/STM32F1xx_HAL_Driver/Src/stm32f1xx_hal_dma.c ****   *               the configuration information for the specified DMA Channel.  
 605:Drivers/STM32F1xx_HAL_Driver/Src/stm32f1xx_hal_dma.c ****   * @retval None
 606:Drivers/STM32F1xx_HAL_Driver/Src/stm32f1xx_hal_dma.c ****   */
 607:Drivers/STM32F1xx_HAL_Driver/Src/stm32f1xx_hal_dma.c **** void HAL_DMA_IRQHandler(DMA_HandleTypeDef *hdma)
 608:Drivers/STM32F1xx_HAL_Driver/Src/stm32f1xx_hal_dma.c **** {
 609:Drivers/STM32F1xx_HAL_Driver/Src/stm32f1xx_hal_dma.c ****   uint32_t flag_it = hdma->DmaBaseAddress->ISR;
 610:Drivers/STM32F1xx_HAL_Driver/Src/stm32f1xx_hal_dma.c ****   uint32_t source_it = hdma->Instance->CCR;
 611:Drivers/STM32F1xx_HAL_Driver/Src/stm32f1xx_hal_dma.c ****   
 612:Drivers/STM32F1xx_HAL_Driver/Src/stm32f1xx_hal_dma.c ****   /* Half Transfer Complete Interrupt management ******************************/
 613:Drivers/STM32F1xx_HAL_Driver/Src/stm32f1xx_hal_dma.c ****   if (((flag_it & (DMA_FLAG_HT1 << hdma->ChannelIndex)) != RESET) && ((source_it & DMA_IT_HT) != RE
 614:Drivers/STM32F1xx_HAL_Driver/Src/stm32f1xx_hal_dma.c ****   {
 615:Drivers/STM32F1xx_HAL_Driver/Src/stm32f1xx_hal_dma.c ****     /* Disable the half transfer interrupt if the DMA mode is not CIRCULAR */
 616:Drivers/STM32F1xx_HAL_Driver/Src/stm32f1xx_hal_dma.c ****     if((hdma->Instance->CCR & DMA_CCR_CIRC) == 0U)
 617:Drivers/STM32F1xx_HAL_Driver/Src/stm32f1xx_hal_dma.c ****     {
 618:Drivers/STM32F1xx_HAL_Driver/Src/stm32f1xx_hal_dma.c ****       /* Disable the half transfer interrupt */
 619:Drivers/STM32F1xx_HAL_Driver/Src/stm32f1xx_hal_dma.c ****       __HAL_DMA_DISABLE_IT(hdma, DMA_IT_HT);
 620:Drivers/STM32F1xx_HAL_Driver/Src/stm32f1xx_hal_dma.c ****     }
 621:Drivers/STM32F1xx_HAL_Driver/Src/stm32f1xx_hal_dma.c ****     /* Clear the half transfer complete flag */
 622:Drivers/STM32F1xx_HAL_Driver/Src/stm32f1xx_hal_dma.c ****     __HAL_DMA_CLEAR_FLAG(hdma, __HAL_DMA_GET_HT_FLAG_INDEX(hdma));
 623:Drivers/STM32F1xx_HAL_Driver/Src/stm32f1xx_hal_dma.c **** 
 624:Drivers/STM32F1xx_HAL_Driver/Src/stm32f1xx_hal_dma.c ****     /* DMA peripheral state is not updated in Half Transfer */
 625:Drivers/STM32F1xx_HAL_Driver/Src/stm32f1xx_hal_dma.c ****     /* but in Transfer Complete case */
 626:Drivers/STM32F1xx_HAL_Driver/Src/stm32f1xx_hal_dma.c **** 
 627:Drivers/STM32F1xx_HAL_Driver/Src/stm32f1xx_hal_dma.c ****     if(hdma->XferHalfCpltCallback != NULL)
 628:Drivers/STM32F1xx_HAL_Driver/Src/stm32f1xx_hal_dma.c ****     {
 629:Drivers/STM32F1xx_HAL_Driver/Src/stm32f1xx_hal_dma.c ****       /* Half transfer callback */
 630:Drivers/STM32F1xx_HAL_Driver/Src/stm32f1xx_hal_dma.c ****       hdma->XferHalfCpltCallback(hdma);
 631:Drivers/STM32F1xx_HAL_Driver/Src/stm32f1xx_hal_dma.c ****     }
 632:Drivers/STM32F1xx_HAL_Driver/Src/stm32f1xx_hal_dma.c ****   }
 633:Drivers/STM32F1xx_HAL_Driver/Src/stm32f1xx_hal_dma.c **** 
 634:Drivers/STM32F1xx_HAL_Driver/Src/stm32f1xx_hal_dma.c ****   /* Transfer Complete Interrupt management ***********************************/
 635:Drivers/STM32F1xx_HAL_Driver/Src/stm32f1xx_hal_dma.c ****   else if (((flag_it & (DMA_FLAG_TC1 << hdma->ChannelIndex)) != RESET) && ((source_it & DMA_IT_TC) 
 636:Drivers/STM32F1xx_HAL_Driver/Src/stm32f1xx_hal_dma.c ****   {
 637:Drivers/STM32F1xx_HAL_Driver/Src/stm32f1xx_hal_dma.c ****     if((hdma->Instance->CCR & DMA_CCR_CIRC) == 0U)
 638:Drivers/STM32F1xx_HAL_Driver/Src/stm32f1xx_hal_dma.c ****     {
 639:Drivers/STM32F1xx_HAL_Driver/Src/stm32f1xx_hal_dma.c ****       /* Disable the transfer complete and error interrupt */
 640:Drivers/STM32F1xx_HAL_Driver/Src/stm32f1xx_hal_dma.c ****       __HAL_DMA_DISABLE_IT(hdma, DMA_IT_TE | DMA_IT_TC);  
 641:Drivers/STM32F1xx_HAL_Driver/Src/stm32f1xx_hal_dma.c **** 
 642:Drivers/STM32F1xx_HAL_Driver/Src/stm32f1xx_hal_dma.c ****       /* Change the DMA state */
 643:Drivers/STM32F1xx_HAL_Driver/Src/stm32f1xx_hal_dma.c ****       hdma->State = HAL_DMA_STATE_READY;
 644:Drivers/STM32F1xx_HAL_Driver/Src/stm32f1xx_hal_dma.c ****     }
 645:Drivers/STM32F1xx_HAL_Driver/Src/stm32f1xx_hal_dma.c ****     /* Clear the transfer complete flag */
 646:Drivers/STM32F1xx_HAL_Driver/Src/stm32f1xx_hal_dma.c ****       __HAL_DMA_CLEAR_FLAG(hdma, __HAL_DMA_GET_TC_FLAG_INDEX(hdma));
 647:Drivers/STM32F1xx_HAL_Driver/Src/stm32f1xx_hal_dma.c **** 
 648:Drivers/STM32F1xx_HAL_Driver/Src/stm32f1xx_hal_dma.c ****     /* Process Unlocked */
 649:Drivers/STM32F1xx_HAL_Driver/Src/stm32f1xx_hal_dma.c ****     __HAL_UNLOCK(hdma);
 650:Drivers/STM32F1xx_HAL_Driver/Src/stm32f1xx_hal_dma.c **** 
 651:Drivers/STM32F1xx_HAL_Driver/Src/stm32f1xx_hal_dma.c ****     if(hdma->XferCpltCallback != NULL)
 652:Drivers/STM32F1xx_HAL_Driver/Src/stm32f1xx_hal_dma.c ****     {
 653:Drivers/STM32F1xx_HAL_Driver/Src/stm32f1xx_hal_dma.c ****       /* Transfer complete callback */
 654:Drivers/STM32F1xx_HAL_Driver/Src/stm32f1xx_hal_dma.c ****       hdma->XferCpltCallback(hdma);
 655:Drivers/STM32F1xx_HAL_Driver/Src/stm32f1xx_hal_dma.c ****     }
 656:Drivers/STM32F1xx_HAL_Driver/Src/stm32f1xx_hal_dma.c ****   }
 657:Drivers/STM32F1xx_HAL_Driver/Src/stm32f1xx_hal_dma.c **** 
 658:Drivers/STM32F1xx_HAL_Driver/Src/stm32f1xx_hal_dma.c ****   /* Transfer Error Interrupt management **************************************/
 659:Drivers/STM32F1xx_HAL_Driver/Src/stm32f1xx_hal_dma.c ****   else if (( RESET != (flag_it & (DMA_FLAG_TE1 << hdma->ChannelIndex))) && (RESET != (source_it & D
ARM GAS  /tmp/ccfkKAY2.s 			page 13


 660:Drivers/STM32F1xx_HAL_Driver/Src/stm32f1xx_hal_dma.c ****   {
 661:Drivers/STM32F1xx_HAL_Driver/Src/stm32f1xx_hal_dma.c ****     /* When a DMA transfer error occurs */
 662:Drivers/STM32F1xx_HAL_Driver/Src/stm32f1xx_hal_dma.c ****     /* A hardware clear of its EN bits is performed */
 663:Drivers/STM32F1xx_HAL_Driver/Src/stm32f1xx_hal_dma.c ****     /* Disable ALL DMA IT */
 664:Drivers/STM32F1xx_HAL_Driver/Src/stm32f1xx_hal_dma.c ****     __HAL_DMA_DISABLE_IT(hdma, (DMA_IT_TC | DMA_IT_HT | DMA_IT_TE));
 665:Drivers/STM32F1xx_HAL_Driver/Src/stm32f1xx_hal_dma.c **** 
 666:Drivers/STM32F1xx_HAL_Driver/Src/stm32f1xx_hal_dma.c ****     /* Clear all flags */
 667:Drivers/STM32F1xx_HAL_Driver/Src/stm32f1xx_hal_dma.c ****     hdma->DmaBaseAddress->IFCR = (DMA_ISR_GIF1 << hdma->ChannelIndex);
 668:Drivers/STM32F1xx_HAL_Driver/Src/stm32f1xx_hal_dma.c **** 
 669:Drivers/STM32F1xx_HAL_Driver/Src/stm32f1xx_hal_dma.c ****     /* Update error code */
 670:Drivers/STM32F1xx_HAL_Driver/Src/stm32f1xx_hal_dma.c ****     hdma->ErrorCode = HAL_DMA_ERROR_TE;
 671:Drivers/STM32F1xx_HAL_Driver/Src/stm32f1xx_hal_dma.c **** 
 672:Drivers/STM32F1xx_HAL_Driver/Src/stm32f1xx_hal_dma.c ****     /* Change the DMA state */
 673:Drivers/STM32F1xx_HAL_Driver/Src/stm32f1xx_hal_dma.c ****     hdma->State = HAL_DMA_STATE_READY;
 674:Drivers/STM32F1xx_HAL_Driver/Src/stm32f1xx_hal_dma.c **** 
 675:Drivers/STM32F1xx_HAL_Driver/Src/stm32f1xx_hal_dma.c ****     /* Process Unlocked */
 676:Drivers/STM32F1xx_HAL_Driver/Src/stm32f1xx_hal_dma.c ****     __HAL_UNLOCK(hdma);
 677:Drivers/STM32F1xx_HAL_Driver/Src/stm32f1xx_hal_dma.c **** 
 678:Drivers/STM32F1xx_HAL_Driver/Src/stm32f1xx_hal_dma.c ****     if (hdma->XferErrorCallback != NULL)
 679:Drivers/STM32F1xx_HAL_Driver/Src/stm32f1xx_hal_dma.c ****     {
 680:Drivers/STM32F1xx_HAL_Driver/Src/stm32f1xx_hal_dma.c ****       /* Transfer error callback */
 681:Drivers/STM32F1xx_HAL_Driver/Src/stm32f1xx_hal_dma.c ****       hdma->XferErrorCallback(hdma);
 682:Drivers/STM32F1xx_HAL_Driver/Src/stm32f1xx_hal_dma.c ****     }
 683:Drivers/STM32F1xx_HAL_Driver/Src/stm32f1xx_hal_dma.c ****   }
 684:Drivers/STM32F1xx_HAL_Driver/Src/stm32f1xx_hal_dma.c ****   return;
 685:Drivers/STM32F1xx_HAL_Driver/Src/stm32f1xx_hal_dma.c **** }
 686:Drivers/STM32F1xx_HAL_Driver/Src/stm32f1xx_hal_dma.c **** 
 687:Drivers/STM32F1xx_HAL_Driver/Src/stm32f1xx_hal_dma.c **** /**
 688:Drivers/STM32F1xx_HAL_Driver/Src/stm32f1xx_hal_dma.c ****   * @brief Register callbacks
 689:Drivers/STM32F1xx_HAL_Driver/Src/stm32f1xx_hal_dma.c ****   * @param hdma: pointer to a DMA_HandleTypeDef structure that contains
 690:Drivers/STM32F1xx_HAL_Driver/Src/stm32f1xx_hal_dma.c ****   *              the configuration information for the specified DMA Channel.
 691:Drivers/STM32F1xx_HAL_Driver/Src/stm32f1xx_hal_dma.c ****   * @param CallbackID: User Callback identifer
 692:Drivers/STM32F1xx_HAL_Driver/Src/stm32f1xx_hal_dma.c ****   *                    a HAL_DMA_CallbackIDTypeDef ENUM as parameter.
 693:Drivers/STM32F1xx_HAL_Driver/Src/stm32f1xx_hal_dma.c ****   * @param pCallback: pointer to private callbacsk function which has pointer to 
 694:Drivers/STM32F1xx_HAL_Driver/Src/stm32f1xx_hal_dma.c ****   *                   a DMA_HandleTypeDef structure as parameter.
 695:Drivers/STM32F1xx_HAL_Driver/Src/stm32f1xx_hal_dma.c ****   * @retval HAL status
 696:Drivers/STM32F1xx_HAL_Driver/Src/stm32f1xx_hal_dma.c ****   */                          
 697:Drivers/STM32F1xx_HAL_Driver/Src/stm32f1xx_hal_dma.c **** HAL_StatusTypeDef HAL_DMA_RegisterCallback(DMA_HandleTypeDef *hdma, HAL_DMA_CallbackIDTypeDef Callb
 698:Drivers/STM32F1xx_HAL_Driver/Src/stm32f1xx_hal_dma.c **** {
 699:Drivers/STM32F1xx_HAL_Driver/Src/stm32f1xx_hal_dma.c ****   HAL_StatusTypeDef status = HAL_OK;
 700:Drivers/STM32F1xx_HAL_Driver/Src/stm32f1xx_hal_dma.c ****   
 701:Drivers/STM32F1xx_HAL_Driver/Src/stm32f1xx_hal_dma.c ****   /* Process locked */
 702:Drivers/STM32F1xx_HAL_Driver/Src/stm32f1xx_hal_dma.c ****   __HAL_LOCK(hdma);
 703:Drivers/STM32F1xx_HAL_Driver/Src/stm32f1xx_hal_dma.c ****   
 704:Drivers/STM32F1xx_HAL_Driver/Src/stm32f1xx_hal_dma.c ****   if(HAL_DMA_STATE_READY == hdma->State)
 705:Drivers/STM32F1xx_HAL_Driver/Src/stm32f1xx_hal_dma.c ****   {
 706:Drivers/STM32F1xx_HAL_Driver/Src/stm32f1xx_hal_dma.c ****     switch (CallbackID)
 707:Drivers/STM32F1xx_HAL_Driver/Src/stm32f1xx_hal_dma.c ****     {
 708:Drivers/STM32F1xx_HAL_Driver/Src/stm32f1xx_hal_dma.c ****     case  HAL_DMA_XFER_CPLT_CB_ID:
 709:Drivers/STM32F1xx_HAL_Driver/Src/stm32f1xx_hal_dma.c ****       hdma->XferCpltCallback = pCallback;
 710:Drivers/STM32F1xx_HAL_Driver/Src/stm32f1xx_hal_dma.c ****       break;
 711:Drivers/STM32F1xx_HAL_Driver/Src/stm32f1xx_hal_dma.c ****       
 712:Drivers/STM32F1xx_HAL_Driver/Src/stm32f1xx_hal_dma.c ****     case  HAL_DMA_XFER_HALFCPLT_CB_ID:
 713:Drivers/STM32F1xx_HAL_Driver/Src/stm32f1xx_hal_dma.c ****       hdma->XferHalfCpltCallback = pCallback;
 714:Drivers/STM32F1xx_HAL_Driver/Src/stm32f1xx_hal_dma.c ****       break;         
 715:Drivers/STM32F1xx_HAL_Driver/Src/stm32f1xx_hal_dma.c **** 
 716:Drivers/STM32F1xx_HAL_Driver/Src/stm32f1xx_hal_dma.c ****     case  HAL_DMA_XFER_ERROR_CB_ID:
ARM GAS  /tmp/ccfkKAY2.s 			page 14


 717:Drivers/STM32F1xx_HAL_Driver/Src/stm32f1xx_hal_dma.c ****       hdma->XferErrorCallback = pCallback;
 718:Drivers/STM32F1xx_HAL_Driver/Src/stm32f1xx_hal_dma.c ****       break;         
 719:Drivers/STM32F1xx_HAL_Driver/Src/stm32f1xx_hal_dma.c ****       
 720:Drivers/STM32F1xx_HAL_Driver/Src/stm32f1xx_hal_dma.c ****     case  HAL_DMA_XFER_ABORT_CB_ID:
 721:Drivers/STM32F1xx_HAL_Driver/Src/stm32f1xx_hal_dma.c ****       hdma->XferAbortCallback = pCallback;
 722:Drivers/STM32F1xx_HAL_Driver/Src/stm32f1xx_hal_dma.c ****       break; 
 723:Drivers/STM32F1xx_HAL_Driver/Src/stm32f1xx_hal_dma.c ****       
 724:Drivers/STM32F1xx_HAL_Driver/Src/stm32f1xx_hal_dma.c ****     default:
 725:Drivers/STM32F1xx_HAL_Driver/Src/stm32f1xx_hal_dma.c ****       status = HAL_ERROR;
 726:Drivers/STM32F1xx_HAL_Driver/Src/stm32f1xx_hal_dma.c ****       break;                                                            
 727:Drivers/STM32F1xx_HAL_Driver/Src/stm32f1xx_hal_dma.c ****     }
 728:Drivers/STM32F1xx_HAL_Driver/Src/stm32f1xx_hal_dma.c ****   }
 729:Drivers/STM32F1xx_HAL_Driver/Src/stm32f1xx_hal_dma.c ****   else
 730:Drivers/STM32F1xx_HAL_Driver/Src/stm32f1xx_hal_dma.c ****   {
 731:Drivers/STM32F1xx_HAL_Driver/Src/stm32f1xx_hal_dma.c ****     status = HAL_ERROR;
 732:Drivers/STM32F1xx_HAL_Driver/Src/stm32f1xx_hal_dma.c ****   } 
 733:Drivers/STM32F1xx_HAL_Driver/Src/stm32f1xx_hal_dma.c ****   
 734:Drivers/STM32F1xx_HAL_Driver/Src/stm32f1xx_hal_dma.c ****   /* Release Lock */
 735:Drivers/STM32F1xx_HAL_Driver/Src/stm32f1xx_hal_dma.c ****   __HAL_UNLOCK(hdma);
 736:Drivers/STM32F1xx_HAL_Driver/Src/stm32f1xx_hal_dma.c ****   
 737:Drivers/STM32F1xx_HAL_Driver/Src/stm32f1xx_hal_dma.c ****   return status;
 738:Drivers/STM32F1xx_HAL_Driver/Src/stm32f1xx_hal_dma.c **** }
 739:Drivers/STM32F1xx_HAL_Driver/Src/stm32f1xx_hal_dma.c **** 
 740:Drivers/STM32F1xx_HAL_Driver/Src/stm32f1xx_hal_dma.c **** /**
 741:Drivers/STM32F1xx_HAL_Driver/Src/stm32f1xx_hal_dma.c ****   * @brief UnRegister callbacks
 742:Drivers/STM32F1xx_HAL_Driver/Src/stm32f1xx_hal_dma.c ****   * @param hdma: pointer to a DMA_HandleTypeDef structure that contains
 743:Drivers/STM32F1xx_HAL_Driver/Src/stm32f1xx_hal_dma.c ****   *              the configuration information for the specified DMA Channel.
 744:Drivers/STM32F1xx_HAL_Driver/Src/stm32f1xx_hal_dma.c ****   * @param CallbackID: User Callback identifer
 745:Drivers/STM32F1xx_HAL_Driver/Src/stm32f1xx_hal_dma.c ****   *                    a HAL_DMA_CallbackIDTypeDef ENUM as parameter.
 746:Drivers/STM32F1xx_HAL_Driver/Src/stm32f1xx_hal_dma.c ****   * @retval HAL status
 747:Drivers/STM32F1xx_HAL_Driver/Src/stm32f1xx_hal_dma.c ****   */              
 748:Drivers/STM32F1xx_HAL_Driver/Src/stm32f1xx_hal_dma.c **** HAL_StatusTypeDef HAL_DMA_UnRegisterCallback(DMA_HandleTypeDef *hdma, HAL_DMA_CallbackIDTypeDef Cal
 749:Drivers/STM32F1xx_HAL_Driver/Src/stm32f1xx_hal_dma.c **** {
 750:Drivers/STM32F1xx_HAL_Driver/Src/stm32f1xx_hal_dma.c ****   HAL_StatusTypeDef status = HAL_OK;
 751:Drivers/STM32F1xx_HAL_Driver/Src/stm32f1xx_hal_dma.c **** 
 752:Drivers/STM32F1xx_HAL_Driver/Src/stm32f1xx_hal_dma.c ****   /* Process locked */
 753:Drivers/STM32F1xx_HAL_Driver/Src/stm32f1xx_hal_dma.c ****   __HAL_LOCK(hdma);
 754:Drivers/STM32F1xx_HAL_Driver/Src/stm32f1xx_hal_dma.c ****   
 755:Drivers/STM32F1xx_HAL_Driver/Src/stm32f1xx_hal_dma.c ****   if(HAL_DMA_STATE_READY == hdma->State)
 756:Drivers/STM32F1xx_HAL_Driver/Src/stm32f1xx_hal_dma.c ****   {
 757:Drivers/STM32F1xx_HAL_Driver/Src/stm32f1xx_hal_dma.c ****     switch (CallbackID)
 758:Drivers/STM32F1xx_HAL_Driver/Src/stm32f1xx_hal_dma.c ****     {
 759:Drivers/STM32F1xx_HAL_Driver/Src/stm32f1xx_hal_dma.c ****     case  HAL_DMA_XFER_CPLT_CB_ID:
 760:Drivers/STM32F1xx_HAL_Driver/Src/stm32f1xx_hal_dma.c ****       hdma->XferCpltCallback = NULL;
 761:Drivers/STM32F1xx_HAL_Driver/Src/stm32f1xx_hal_dma.c ****       break;
 762:Drivers/STM32F1xx_HAL_Driver/Src/stm32f1xx_hal_dma.c **** 
 763:Drivers/STM32F1xx_HAL_Driver/Src/stm32f1xx_hal_dma.c ****     case  HAL_DMA_XFER_HALFCPLT_CB_ID:
 764:Drivers/STM32F1xx_HAL_Driver/Src/stm32f1xx_hal_dma.c ****       hdma->XferHalfCpltCallback = NULL;
 765:Drivers/STM32F1xx_HAL_Driver/Src/stm32f1xx_hal_dma.c ****       break;         
 766:Drivers/STM32F1xx_HAL_Driver/Src/stm32f1xx_hal_dma.c **** 
 767:Drivers/STM32F1xx_HAL_Driver/Src/stm32f1xx_hal_dma.c ****     case  HAL_DMA_XFER_ERROR_CB_ID:
 768:Drivers/STM32F1xx_HAL_Driver/Src/stm32f1xx_hal_dma.c ****       hdma->XferErrorCallback = NULL;
 769:Drivers/STM32F1xx_HAL_Driver/Src/stm32f1xx_hal_dma.c ****       break;         
 770:Drivers/STM32F1xx_HAL_Driver/Src/stm32f1xx_hal_dma.c **** 
 771:Drivers/STM32F1xx_HAL_Driver/Src/stm32f1xx_hal_dma.c ****     case  HAL_DMA_XFER_ABORT_CB_ID:
 772:Drivers/STM32F1xx_HAL_Driver/Src/stm32f1xx_hal_dma.c ****       hdma->XferAbortCallback = NULL;
 773:Drivers/STM32F1xx_HAL_Driver/Src/stm32f1xx_hal_dma.c ****       break; 
ARM GAS  /tmp/ccfkKAY2.s 			page 15


 774:Drivers/STM32F1xx_HAL_Driver/Src/stm32f1xx_hal_dma.c **** 
 775:Drivers/STM32F1xx_HAL_Driver/Src/stm32f1xx_hal_dma.c ****     case   HAL_DMA_XFER_ALL_CB_ID:
 776:Drivers/STM32F1xx_HAL_Driver/Src/stm32f1xx_hal_dma.c ****       hdma->XferCpltCallback = NULL;
 777:Drivers/STM32F1xx_HAL_Driver/Src/stm32f1xx_hal_dma.c ****       hdma->XferHalfCpltCallback = NULL;
 778:Drivers/STM32F1xx_HAL_Driver/Src/stm32f1xx_hal_dma.c ****       hdma->XferErrorCallback = NULL;
 779:Drivers/STM32F1xx_HAL_Driver/Src/stm32f1xx_hal_dma.c ****       hdma->XferAbortCallback = NULL;
 780:Drivers/STM32F1xx_HAL_Driver/Src/stm32f1xx_hal_dma.c ****       break; 
 781:Drivers/STM32F1xx_HAL_Driver/Src/stm32f1xx_hal_dma.c **** 
 782:Drivers/STM32F1xx_HAL_Driver/Src/stm32f1xx_hal_dma.c ****     default:
 783:Drivers/STM32F1xx_HAL_Driver/Src/stm32f1xx_hal_dma.c ****       status = HAL_ERROR;
 784:Drivers/STM32F1xx_HAL_Driver/Src/stm32f1xx_hal_dma.c ****       break;
 785:Drivers/STM32F1xx_HAL_Driver/Src/stm32f1xx_hal_dma.c ****     }
 786:Drivers/STM32F1xx_HAL_Driver/Src/stm32f1xx_hal_dma.c ****   }
 787:Drivers/STM32F1xx_HAL_Driver/Src/stm32f1xx_hal_dma.c ****   else
 788:Drivers/STM32F1xx_HAL_Driver/Src/stm32f1xx_hal_dma.c ****   {
 789:Drivers/STM32F1xx_HAL_Driver/Src/stm32f1xx_hal_dma.c ****     status = HAL_ERROR;
 790:Drivers/STM32F1xx_HAL_Driver/Src/stm32f1xx_hal_dma.c ****   } 
 791:Drivers/STM32F1xx_HAL_Driver/Src/stm32f1xx_hal_dma.c ****   
 792:Drivers/STM32F1xx_HAL_Driver/Src/stm32f1xx_hal_dma.c ****   /* Release Lock */
 793:Drivers/STM32F1xx_HAL_Driver/Src/stm32f1xx_hal_dma.c ****   __HAL_UNLOCK(hdma);
 794:Drivers/STM32F1xx_HAL_Driver/Src/stm32f1xx_hal_dma.c ****   
 795:Drivers/STM32F1xx_HAL_Driver/Src/stm32f1xx_hal_dma.c ****   return status;
 796:Drivers/STM32F1xx_HAL_Driver/Src/stm32f1xx_hal_dma.c **** }
 797:Drivers/STM32F1xx_HAL_Driver/Src/stm32f1xx_hal_dma.c ****   
 798:Drivers/STM32F1xx_HAL_Driver/Src/stm32f1xx_hal_dma.c **** /**
 799:Drivers/STM32F1xx_HAL_Driver/Src/stm32f1xx_hal_dma.c ****   * @}
 800:Drivers/STM32F1xx_HAL_Driver/Src/stm32f1xx_hal_dma.c ****   */
 801:Drivers/STM32F1xx_HAL_Driver/Src/stm32f1xx_hal_dma.c **** 
 802:Drivers/STM32F1xx_HAL_Driver/Src/stm32f1xx_hal_dma.c **** /** @defgroup DMA_Exported_Functions_Group3 Peripheral State and Errors functions
 803:Drivers/STM32F1xx_HAL_Driver/Src/stm32f1xx_hal_dma.c ****   *  @brief    Peripheral State and Errors functions
 804:Drivers/STM32F1xx_HAL_Driver/Src/stm32f1xx_hal_dma.c ****   *
 805:Drivers/STM32F1xx_HAL_Driver/Src/stm32f1xx_hal_dma.c **** @verbatim
 806:Drivers/STM32F1xx_HAL_Driver/Src/stm32f1xx_hal_dma.c ****  ===============================================================================
 807:Drivers/STM32F1xx_HAL_Driver/Src/stm32f1xx_hal_dma.c ****             ##### Peripheral State and Errors functions #####
 808:Drivers/STM32F1xx_HAL_Driver/Src/stm32f1xx_hal_dma.c ****  ===============================================================================  
 809:Drivers/STM32F1xx_HAL_Driver/Src/stm32f1xx_hal_dma.c ****     [..]
 810:Drivers/STM32F1xx_HAL_Driver/Src/stm32f1xx_hal_dma.c ****     This subsection provides functions allowing to
 811:Drivers/STM32F1xx_HAL_Driver/Src/stm32f1xx_hal_dma.c ****       (+) Check the DMA state
 812:Drivers/STM32F1xx_HAL_Driver/Src/stm32f1xx_hal_dma.c ****       (+) Get error code
 813:Drivers/STM32F1xx_HAL_Driver/Src/stm32f1xx_hal_dma.c **** 
 814:Drivers/STM32F1xx_HAL_Driver/Src/stm32f1xx_hal_dma.c **** @endverbatim
 815:Drivers/STM32F1xx_HAL_Driver/Src/stm32f1xx_hal_dma.c ****   * @{
 816:Drivers/STM32F1xx_HAL_Driver/Src/stm32f1xx_hal_dma.c ****   */
 817:Drivers/STM32F1xx_HAL_Driver/Src/stm32f1xx_hal_dma.c **** 
 818:Drivers/STM32F1xx_HAL_Driver/Src/stm32f1xx_hal_dma.c **** /**
 819:Drivers/STM32F1xx_HAL_Driver/Src/stm32f1xx_hal_dma.c ****   * @brief  Return the DMA hande state.
 820:Drivers/STM32F1xx_HAL_Driver/Src/stm32f1xx_hal_dma.c ****   * @param  hdma: pointer to a DMA_HandleTypeDef structure that contains
 821:Drivers/STM32F1xx_HAL_Driver/Src/stm32f1xx_hal_dma.c ****   *               the configuration information for the specified DMA Channel.
 822:Drivers/STM32F1xx_HAL_Driver/Src/stm32f1xx_hal_dma.c ****   * @retval HAL state
 823:Drivers/STM32F1xx_HAL_Driver/Src/stm32f1xx_hal_dma.c ****   */
 824:Drivers/STM32F1xx_HAL_Driver/Src/stm32f1xx_hal_dma.c **** HAL_DMA_StateTypeDef HAL_DMA_GetState(DMA_HandleTypeDef *hdma)
 825:Drivers/STM32F1xx_HAL_Driver/Src/stm32f1xx_hal_dma.c **** {
 826:Drivers/STM32F1xx_HAL_Driver/Src/stm32f1xx_hal_dma.c ****   /* Return DMA handle state */
 827:Drivers/STM32F1xx_HAL_Driver/Src/stm32f1xx_hal_dma.c ****   return hdma->State;
 828:Drivers/STM32F1xx_HAL_Driver/Src/stm32f1xx_hal_dma.c **** }
 829:Drivers/STM32F1xx_HAL_Driver/Src/stm32f1xx_hal_dma.c **** 
 830:Drivers/STM32F1xx_HAL_Driver/Src/stm32f1xx_hal_dma.c **** /**
ARM GAS  /tmp/ccfkKAY2.s 			page 16


 831:Drivers/STM32F1xx_HAL_Driver/Src/stm32f1xx_hal_dma.c ****   * @brief  Return the DMA error code.
 832:Drivers/STM32F1xx_HAL_Driver/Src/stm32f1xx_hal_dma.c ****   * @param  hdma : pointer to a DMA_HandleTypeDef structure that contains
 833:Drivers/STM32F1xx_HAL_Driver/Src/stm32f1xx_hal_dma.c ****   *              the configuration information for the specified DMA Channel.
 834:Drivers/STM32F1xx_HAL_Driver/Src/stm32f1xx_hal_dma.c ****   * @retval DMA Error Code
 835:Drivers/STM32F1xx_HAL_Driver/Src/stm32f1xx_hal_dma.c ****   */
 836:Drivers/STM32F1xx_HAL_Driver/Src/stm32f1xx_hal_dma.c **** uint32_t HAL_DMA_GetError(DMA_HandleTypeDef *hdma)
 837:Drivers/STM32F1xx_HAL_Driver/Src/stm32f1xx_hal_dma.c **** {
 838:Drivers/STM32F1xx_HAL_Driver/Src/stm32f1xx_hal_dma.c ****   return hdma->ErrorCode;
 839:Drivers/STM32F1xx_HAL_Driver/Src/stm32f1xx_hal_dma.c **** }
 840:Drivers/STM32F1xx_HAL_Driver/Src/stm32f1xx_hal_dma.c **** 
 841:Drivers/STM32F1xx_HAL_Driver/Src/stm32f1xx_hal_dma.c **** /**
 842:Drivers/STM32F1xx_HAL_Driver/Src/stm32f1xx_hal_dma.c ****   * @}
 843:Drivers/STM32F1xx_HAL_Driver/Src/stm32f1xx_hal_dma.c ****   */
 844:Drivers/STM32F1xx_HAL_Driver/Src/stm32f1xx_hal_dma.c **** 
 845:Drivers/STM32F1xx_HAL_Driver/Src/stm32f1xx_hal_dma.c **** /**
 846:Drivers/STM32F1xx_HAL_Driver/Src/stm32f1xx_hal_dma.c ****   * @}
 847:Drivers/STM32F1xx_HAL_Driver/Src/stm32f1xx_hal_dma.c ****   */
 848:Drivers/STM32F1xx_HAL_Driver/Src/stm32f1xx_hal_dma.c **** 
 849:Drivers/STM32F1xx_HAL_Driver/Src/stm32f1xx_hal_dma.c **** /** @addtogroup DMA_Private_Functions
 850:Drivers/STM32F1xx_HAL_Driver/Src/stm32f1xx_hal_dma.c ****   * @{
 851:Drivers/STM32F1xx_HAL_Driver/Src/stm32f1xx_hal_dma.c ****   */
 852:Drivers/STM32F1xx_HAL_Driver/Src/stm32f1xx_hal_dma.c **** 
 853:Drivers/STM32F1xx_HAL_Driver/Src/stm32f1xx_hal_dma.c **** /**
 854:Drivers/STM32F1xx_HAL_Driver/Src/stm32f1xx_hal_dma.c ****   * @brief  Sets the DMA Transfer parameter.
 855:Drivers/STM32F1xx_HAL_Driver/Src/stm32f1xx_hal_dma.c ****   * @param  hdma:       pointer to a DMA_HandleTypeDef structure that contains
 856:Drivers/STM32F1xx_HAL_Driver/Src/stm32f1xx_hal_dma.c ****   *                     the configuration information for the specified DMA Channel.
 857:Drivers/STM32F1xx_HAL_Driver/Src/stm32f1xx_hal_dma.c ****   * @param  SrcAddress: The source memory Buffer address
 858:Drivers/STM32F1xx_HAL_Driver/Src/stm32f1xx_hal_dma.c ****   * @param  DstAddress: The destination memory Buffer address
 859:Drivers/STM32F1xx_HAL_Driver/Src/stm32f1xx_hal_dma.c ****   * @param  DataLength: The length of data to be transferred from source to destination
 860:Drivers/STM32F1xx_HAL_Driver/Src/stm32f1xx_hal_dma.c ****   * @retval HAL status
 861:Drivers/STM32F1xx_HAL_Driver/Src/stm32f1xx_hal_dma.c ****   */
 862:Drivers/STM32F1xx_HAL_Driver/Src/stm32f1xx_hal_dma.c **** static void DMA_SetConfig(DMA_HandleTypeDef *hdma, uint32_t SrcAddress, uint32_t DstAddress, uint32
 863:Drivers/STM32F1xx_HAL_Driver/Src/stm32f1xx_hal_dma.c **** {
  27              		.loc 1 863 0
  28              		.cfi_startproc
  29              		@ args = 0, pretend = 0, frame = 0
  30              		@ frame_needed = 0, uses_anonymous_args = 0
  31              		@ link register save eliminated.
  32              	.LVL0:
  33 0000 70B4     		push	{r4, r5, r6}
  34              	.LCFI0:
  35              		.cfi_def_cfa_offset 12
  36              		.cfi_offset 4, -12
  37              		.cfi_offset 5, -8
  38              		.cfi_offset 6, -4
 864:Drivers/STM32F1xx_HAL_Driver/Src/stm32f1xx_hal_dma.c ****   /* Clear all flags */
 865:Drivers/STM32F1xx_HAL_Driver/Src/stm32f1xx_hal_dma.c ****   hdma->DmaBaseAddress->IFCR = (DMA_ISR_GIF1 << hdma->ChannelIndex);
  39              		.loc 1 865 0
  40 0002 C56B     		ldr	r5, [r0, #60]
  41 0004 066C     		ldr	r6, [r0, #64]
  42 0006 0124     		movs	r4, #1
  43 0008 B440     		lsls	r4, r4, r6
  44 000a 6C60     		str	r4, [r5, #4]
 866:Drivers/STM32F1xx_HAL_Driver/Src/stm32f1xx_hal_dma.c **** 
 867:Drivers/STM32F1xx_HAL_Driver/Src/stm32f1xx_hal_dma.c ****   /* Configure DMA Channel data length */
 868:Drivers/STM32F1xx_HAL_Driver/Src/stm32f1xx_hal_dma.c ****   hdma->Instance->CNDTR = DataLength;
  45              		.loc 1 868 0
ARM GAS  /tmp/ccfkKAY2.s 			page 17


  46 000c 0468     		ldr	r4, [r0]
  47 000e 6360     		str	r3, [r4, #4]
 869:Drivers/STM32F1xx_HAL_Driver/Src/stm32f1xx_hal_dma.c **** 
 870:Drivers/STM32F1xx_HAL_Driver/Src/stm32f1xx_hal_dma.c ****   /* Memory to Peripheral */
 871:Drivers/STM32F1xx_HAL_Driver/Src/stm32f1xx_hal_dma.c ****   if((hdma->Init.Direction) == DMA_MEMORY_TO_PERIPH)
  48              		.loc 1 871 0
  49 0010 4368     		ldr	r3, [r0, #4]
  50              	.LVL1:
  51 0012 102B     		cmp	r3, #16
  52 0014 04D1     		bne	.L2
 872:Drivers/STM32F1xx_HAL_Driver/Src/stm32f1xx_hal_dma.c ****   {
 873:Drivers/STM32F1xx_HAL_Driver/Src/stm32f1xx_hal_dma.c ****     /* Configure DMA Channel destination address */
 874:Drivers/STM32F1xx_HAL_Driver/Src/stm32f1xx_hal_dma.c ****     hdma->Instance->CPAR = DstAddress;
  53              		.loc 1 874 0
  54 0016 0368     		ldr	r3, [r0]
  55 0018 9A60     		str	r2, [r3, #8]
  56              	.LVL2:
 875:Drivers/STM32F1xx_HAL_Driver/Src/stm32f1xx_hal_dma.c **** 
 876:Drivers/STM32F1xx_HAL_Driver/Src/stm32f1xx_hal_dma.c ****     /* Configure DMA Channel source address */
 877:Drivers/STM32F1xx_HAL_Driver/Src/stm32f1xx_hal_dma.c ****     hdma->Instance->CMAR = SrcAddress;
  57              		.loc 1 877 0
  58 001a 0368     		ldr	r3, [r0]
  59 001c D960     		str	r1, [r3, #12]
  60 001e 03E0     		b	.L1
  61              	.LVL3:
  62              	.L2:
 878:Drivers/STM32F1xx_HAL_Driver/Src/stm32f1xx_hal_dma.c ****   }
 879:Drivers/STM32F1xx_HAL_Driver/Src/stm32f1xx_hal_dma.c ****   /* Peripheral to Memory */
 880:Drivers/STM32F1xx_HAL_Driver/Src/stm32f1xx_hal_dma.c ****   else
 881:Drivers/STM32F1xx_HAL_Driver/Src/stm32f1xx_hal_dma.c ****   {
 882:Drivers/STM32F1xx_HAL_Driver/Src/stm32f1xx_hal_dma.c ****     /* Configure DMA Channel source address */
 883:Drivers/STM32F1xx_HAL_Driver/Src/stm32f1xx_hal_dma.c ****     hdma->Instance->CPAR = SrcAddress;
  63              		.loc 1 883 0
  64 0020 0368     		ldr	r3, [r0]
  65 0022 9960     		str	r1, [r3, #8]
  66              	.LVL4:
 884:Drivers/STM32F1xx_HAL_Driver/Src/stm32f1xx_hal_dma.c **** 
 885:Drivers/STM32F1xx_HAL_Driver/Src/stm32f1xx_hal_dma.c ****     /* Configure DMA Channel destination address */
 886:Drivers/STM32F1xx_HAL_Driver/Src/stm32f1xx_hal_dma.c ****     hdma->Instance->CMAR = DstAddress;
  67              		.loc 1 886 0
  68 0024 0368     		ldr	r3, [r0]
  69 0026 DA60     		str	r2, [r3, #12]
  70              	.L1:
 887:Drivers/STM32F1xx_HAL_Driver/Src/stm32f1xx_hal_dma.c ****   }
 888:Drivers/STM32F1xx_HAL_Driver/Src/stm32f1xx_hal_dma.c **** }
  71              		.loc 1 888 0
  72 0028 70BC     		pop	{r4, r5, r6}
  73              	.LCFI1:
  74              		.cfi_restore 6
  75              		.cfi_restore 5
  76              		.cfi_restore 4
  77              		.cfi_def_cfa_offset 0
  78 002a 7047     		bx	lr
  79              		.cfi_endproc
  80              	.LFE76:
  82              		.section	.text.HAL_DMA_Init,"ax",%progbits
  83              		.align	2
ARM GAS  /tmp/ccfkKAY2.s 			page 18


  84              		.global	HAL_DMA_Init
  85              		.thumb
  86              		.thumb_func
  88              	HAL_DMA_Init:
  89              	.LFB64:
 160:Drivers/STM32F1xx_HAL_Driver/Src/stm32f1xx_hal_dma.c ****   uint32_t tmp = 0U;
  90              		.loc 1 160 0
  91              		.cfi_startproc
  92              		@ args = 0, pretend = 0, frame = 0
  93              		@ frame_needed = 0, uses_anonymous_args = 0
  94              		@ link register save eliminated.
  95              	.LVL5:
 164:Drivers/STM32F1xx_HAL_Driver/Src/stm32f1xx_hal_dma.c ****   {
  96              		.loc 1 164 0
  97 0000 0028     		cmp	r0, #0
  98 0002 3ED0     		beq	.L9
 160:Drivers/STM32F1xx_HAL_Driver/Src/stm32f1xx_hal_dma.c ****   uint32_t tmp = 0U;
  99              		.loc 1 160 0
 100 0004 10B4     		push	{r4}
 101              	.LCFI2:
 102              		.cfi_def_cfa_offset 4
 103              		.cfi_offset 4, -4
 104 0006 0346     		mov	r3, r0
 181:Drivers/STM32F1xx_HAL_Driver/Src/stm32f1xx_hal_dma.c ****   {
 105              		.loc 1 181 0
 106 0008 0168     		ldr	r1, [r0]
 107 000a 204A     		ldr	r2, .L12
 108 000c 9142     		cmp	r1, r2
 109 000e 0AD8     		bhi	.L7
 184:Drivers/STM32F1xx_HAL_Driver/Src/stm32f1xx_hal_dma.c ****     hdma->DmaBaseAddress = DMA1;
 110              		.loc 1 184 0
 111 0010 1F4A     		ldr	r2, .L12+4
 112 0012 0A44     		add	r2, r2, r1
 113 0014 1F49     		ldr	r1, .L12+8
 114 0016 A1FB0212 		umull	r1, r2, r1, r2
 115 001a 1209     		lsrs	r2, r2, #4
 116 001c 9200     		lsls	r2, r2, #2
 117 001e 0264     		str	r2, [r0, #64]
 185:Drivers/STM32F1xx_HAL_Driver/Src/stm32f1xx_hal_dma.c ****   }
 118              		.loc 1 185 0
 119 0020 1D4A     		ldr	r2, .L12+12
 120 0022 C263     		str	r2, [r0, #60]
 121 0024 09E0     		b	.L8
 122              	.L7:
 190:Drivers/STM32F1xx_HAL_Driver/Src/stm32f1xx_hal_dma.c ****     hdma->DmaBaseAddress = DMA2;
 123              		.loc 1 190 0
 124 0026 1D4A     		ldr	r2, .L12+16
 125 0028 0A44     		add	r2, r2, r1
 126 002a 1A49     		ldr	r1, .L12+8
 127 002c A1FB0212 		umull	r1, r2, r1, r2
 128 0030 1209     		lsrs	r2, r2, #4
 129 0032 9200     		lsls	r2, r2, #2
 130 0034 0264     		str	r2, [r0, #64]
 191:Drivers/STM32F1xx_HAL_Driver/Src/stm32f1xx_hal_dma.c ****   }
 131              		.loc 1 191 0
 132 0036 1A4A     		ldr	r2, .L12+20
 133 0038 C263     		str	r2, [r0, #60]
ARM GAS  /tmp/ccfkKAY2.s 			page 19


 134              	.L8:
 200:Drivers/STM32F1xx_HAL_Driver/Src/stm32f1xx_hal_dma.c **** 
 135              		.loc 1 200 0
 136 003a 0222     		movs	r2, #2
 137 003c 83F82120 		strb	r2, [r3, #33]
 203:Drivers/STM32F1xx_HAL_Driver/Src/stm32f1xx_hal_dma.c **** 
 138              		.loc 1 203 0
 139 0040 1C68     		ldr	r4, [r3]
 140 0042 2268     		ldr	r2, [r4]
 141              	.LVL6:
 206:Drivers/STM32F1xx_HAL_Driver/Src/stm32f1xx_hal_dma.c ****                       DMA_CCR_MINC  | DMA_CCR_PINC   | DMA_CCR_CIRC   | \
 142              		.loc 1 206 0
 143 0044 22F47F51 		bic	r1, r2, #16320
 144 0048 21F03001 		bic	r1, r1, #48
 145              	.LVL7:
 211:Drivers/STM32F1xx_HAL_Driver/Src/stm32f1xx_hal_dma.c ****           hdma->Init.PeriphInc           | hdma->Init.MemInc           |
 146              		.loc 1 211 0
 147 004c 5868     		ldr	r0, [r3, #4]
 148              	.LVL8:
 212:Drivers/STM32F1xx_HAL_Driver/Src/stm32f1xx_hal_dma.c ****           hdma->Init.PeriphDataAlignment | hdma->Init.MemDataAlignment |
 149              		.loc 1 212 0
 150 004e 9A68     		ldr	r2, [r3, #8]
 211:Drivers/STM32F1xx_HAL_Driver/Src/stm32f1xx_hal_dma.c ****           hdma->Init.PeriphInc           | hdma->Init.MemInc           |
 151              		.loc 1 211 0
 152 0050 1043     		orrs	r0, r0, r2
 212:Drivers/STM32F1xx_HAL_Driver/Src/stm32f1xx_hal_dma.c ****           hdma->Init.PeriphDataAlignment | hdma->Init.MemDataAlignment |
 153              		.loc 1 212 0
 154 0052 DA68     		ldr	r2, [r3, #12]
 155 0054 1043     		orrs	r0, r0, r2
 213:Drivers/STM32F1xx_HAL_Driver/Src/stm32f1xx_hal_dma.c ****           hdma->Init.Mode                | hdma->Init.Priority;
 156              		.loc 1 213 0
 157 0056 1A69     		ldr	r2, [r3, #16]
 212:Drivers/STM32F1xx_HAL_Driver/Src/stm32f1xx_hal_dma.c ****           hdma->Init.PeriphDataAlignment | hdma->Init.MemDataAlignment |
 158              		.loc 1 212 0
 159 0058 1043     		orrs	r0, r0, r2
 213:Drivers/STM32F1xx_HAL_Driver/Src/stm32f1xx_hal_dma.c ****           hdma->Init.Mode                | hdma->Init.Priority;
 160              		.loc 1 213 0
 161 005a 5A69     		ldr	r2, [r3, #20]
 162 005c 1043     		orrs	r0, r0, r2
 214:Drivers/STM32F1xx_HAL_Driver/Src/stm32f1xx_hal_dma.c **** 
 163              		.loc 1 214 0
 164 005e 9A69     		ldr	r2, [r3, #24]
 213:Drivers/STM32F1xx_HAL_Driver/Src/stm32f1xx_hal_dma.c ****           hdma->Init.Mode                | hdma->Init.Priority;
 165              		.loc 1 213 0
 166 0060 1043     		orrs	r0, r0, r2
 214:Drivers/STM32F1xx_HAL_Driver/Src/stm32f1xx_hal_dma.c **** 
 167              		.loc 1 214 0
 168 0062 DA69     		ldr	r2, [r3, #28]
 169 0064 0243     		orrs	r2, r2, r0
 211:Drivers/STM32F1xx_HAL_Driver/Src/stm32f1xx_hal_dma.c ****           hdma->Init.PeriphInc           | hdma->Init.MemInc           |
 170              		.loc 1 211 0
 171 0066 0A43     		orrs	r2, r2, r1
 172              	.LVL9:
 217:Drivers/STM32F1xx_HAL_Driver/Src/stm32f1xx_hal_dma.c **** 
 173              		.loc 1 217 0
 174 0068 2260     		str	r2, [r4]
 221:Drivers/STM32F1xx_HAL_Driver/Src/stm32f1xx_hal_dma.c ****   hdma->XferHalfCpltCallback = NULL;
ARM GAS  /tmp/ccfkKAY2.s 			page 20


 175              		.loc 1 221 0
 176 006a 0020     		movs	r0, #0
 177 006c 9862     		str	r0, [r3, #40]
 222:Drivers/STM32F1xx_HAL_Driver/Src/stm32f1xx_hal_dma.c ****   hdma->XferErrorCallback = NULL;
 178              		.loc 1 222 0
 179 006e D862     		str	r0, [r3, #44]
 223:Drivers/STM32F1xx_HAL_Driver/Src/stm32f1xx_hal_dma.c ****   hdma->XferAbortCallback = NULL;
 180              		.loc 1 223 0
 181 0070 1863     		str	r0, [r3, #48]
 224:Drivers/STM32F1xx_HAL_Driver/Src/stm32f1xx_hal_dma.c **** 
 182              		.loc 1 224 0
 183 0072 5863     		str	r0, [r3, #52]
 227:Drivers/STM32F1xx_HAL_Driver/Src/stm32f1xx_hal_dma.c **** 
 184              		.loc 1 227 0
 185 0074 9863     		str	r0, [r3, #56]
 230:Drivers/STM32F1xx_HAL_Driver/Src/stm32f1xx_hal_dma.c ****   /* Allocate lock resource and initialize it */
 186              		.loc 1 230 0
 187 0076 0122     		movs	r2, #1
 188              	.LVL10:
 189 0078 83F82120 		strb	r2, [r3, #33]
 232:Drivers/STM32F1xx_HAL_Driver/Src/stm32f1xx_hal_dma.c ****   
 190              		.loc 1 232 0
 191 007c 83F82000 		strb	r0, [r3, #32]
 234:Drivers/STM32F1xx_HAL_Driver/Src/stm32f1xx_hal_dma.c **** }
 192              		.loc 1 234 0
 193 0080 01E0     		b	.L6
 194              	.LVL11:
 195              	.L9:
 196              	.LCFI3:
 197              		.cfi_def_cfa_offset 0
 198              		.cfi_restore 4
 166:Drivers/STM32F1xx_HAL_Driver/Src/stm32f1xx_hal_dma.c ****   }
 199              		.loc 1 166 0
 200 0082 0120     		movs	r0, #1
 201              	.LVL12:
 202 0084 7047     		bx	lr
 203              	.LVL13:
 204              	.L6:
 205              	.LCFI4:
 206              		.cfi_def_cfa_offset 4
 207              		.cfi_offset 4, -4
 235:Drivers/STM32F1xx_HAL_Driver/Src/stm32f1xx_hal_dma.c **** 
 208              		.loc 1 235 0
 209 0086 10BC     		pop	{r4}
 210              	.LCFI5:
 211              		.cfi_restore 4
 212              		.cfi_def_cfa_offset 0
 213 0088 7047     		bx	lr
 214              	.L13:
 215 008a 00BF     		.align	2
 216              	.L12:
 217 008c 07040240 		.word	1073873927
 218 0090 F8FFFDBF 		.word	-1073872904
 219 0094 CDCCCCCC 		.word	-858993459
 220 0098 00000240 		.word	1073872896
 221 009c F8FBFDBF 		.word	-1073873928
 222 00a0 00040240 		.word	1073873920
ARM GAS  /tmp/ccfkKAY2.s 			page 21


 223              		.cfi_endproc
 224              	.LFE64:
 226              		.section	.text.HAL_DMA_DeInit,"ax",%progbits
 227              		.align	2
 228              		.global	HAL_DMA_DeInit
 229              		.thumb
 230              		.thumb_func
 232              	HAL_DMA_DeInit:
 233              	.LFB65:
 244:Drivers/STM32F1xx_HAL_Driver/Src/stm32f1xx_hal_dma.c ****   /* Check the DMA handle allocation */
 234              		.loc 1 244 0
 235              		.cfi_startproc
 236              		@ args = 0, pretend = 0, frame = 0
 237              		@ frame_needed = 0, uses_anonymous_args = 0
 238              		@ link register save eliminated.
 239              	.LVL14:
 246:Drivers/STM32F1xx_HAL_Driver/Src/stm32f1xx_hal_dma.c ****   {
 240              		.loc 1 246 0
 241 0000 0346     		mov	r3, r0
 242 0002 0028     		cmp	r0, #0
 243 0004 32D0     		beq	.L18
 255:Drivers/STM32F1xx_HAL_Driver/Src/stm32f1xx_hal_dma.c **** 
 244              		.loc 1 255 0
 245 0006 0168     		ldr	r1, [r0]
 246 0008 0A68     		ldr	r2, [r1]
 247 000a 22F00102 		bic	r2, r2, #1
 248 000e 0A60     		str	r2, [r1]
 258:Drivers/STM32F1xx_HAL_Driver/Src/stm32f1xx_hal_dma.c **** 
 249              		.loc 1 258 0
 250 0010 0168     		ldr	r1, [r0]
 251 0012 0022     		movs	r2, #0
 252 0014 0A60     		str	r2, [r1]
 261:Drivers/STM32F1xx_HAL_Driver/Src/stm32f1xx_hal_dma.c **** 
 253              		.loc 1 261 0
 254 0016 0168     		ldr	r1, [r0]
 255 0018 4A60     		str	r2, [r1, #4]
 264:Drivers/STM32F1xx_HAL_Driver/Src/stm32f1xx_hal_dma.c **** 
 256              		.loc 1 264 0
 257 001a 0168     		ldr	r1, [r0]
 258 001c 8A60     		str	r2, [r1, #8]
 267:Drivers/STM32F1xx_HAL_Driver/Src/stm32f1xx_hal_dma.c **** 
 259              		.loc 1 267 0
 260 001e 0168     		ldr	r1, [r0]
 261 0020 CA60     		str	r2, [r1, #12]
 271:Drivers/STM32F1xx_HAL_Driver/Src/stm32f1xx_hal_dma.c ****   {
 262              		.loc 1 271 0
 263 0022 0168     		ldr	r1, [r0]
 264 0024 124A     		ldr	r2, .L19
 265 0026 9142     		cmp	r1, r2
 266 0028 0AD8     		bhi	.L16
 274:Drivers/STM32F1xx_HAL_Driver/Src/stm32f1xx_hal_dma.c ****     hdma->DmaBaseAddress = DMA1;
 267              		.loc 1 274 0
 268 002a 124A     		ldr	r2, .L19+4
 269 002c 0A44     		add	r2, r2, r1
 270 002e 1249     		ldr	r1, .L19+8
 271 0030 A1FB0212 		umull	r1, r2, r1, r2
 272 0034 1209     		lsrs	r2, r2, #4
ARM GAS  /tmp/ccfkKAY2.s 			page 22


 273 0036 9200     		lsls	r2, r2, #2
 274 0038 0264     		str	r2, [r0, #64]
 275:Drivers/STM32F1xx_HAL_Driver/Src/stm32f1xx_hal_dma.c ****   }
 275              		.loc 1 275 0
 276 003a 104A     		ldr	r2, .L19+12
 277 003c C263     		str	r2, [r0, #60]
 278 003e 09E0     		b	.L17
 279              	.L16:
 280:Drivers/STM32F1xx_HAL_Driver/Src/stm32f1xx_hal_dma.c ****     hdma->DmaBaseAddress = DMA2;
 280              		.loc 1 280 0
 281 0040 0F4A     		ldr	r2, .L19+16
 282 0042 0A44     		add	r2, r2, r1
 283 0044 0C49     		ldr	r1, .L19+8
 284 0046 A1FB0212 		umull	r1, r2, r1, r2
 285 004a 1209     		lsrs	r2, r2, #4
 286 004c 9200     		lsls	r2, r2, #2
 287 004e 0264     		str	r2, [r0, #64]
 281:Drivers/STM32F1xx_HAL_Driver/Src/stm32f1xx_hal_dma.c ****   }
 288              		.loc 1 281 0
 289 0050 0C4A     		ldr	r2, .L19+20
 290 0052 C263     		str	r2, [r0, #60]
 291              	.L17:
 290:Drivers/STM32F1xx_HAL_Driver/Src/stm32f1xx_hal_dma.c **** 
 292              		.loc 1 290 0
 293 0054 D96B     		ldr	r1, [r3, #60]
 294 0056 186C     		ldr	r0, [r3, #64]
 295              	.LVL15:
 296 0058 0122     		movs	r2, #1
 297 005a 8240     		lsls	r2, r2, r0
 298 005c 4A60     		str	r2, [r1, #4]
 293:Drivers/STM32F1xx_HAL_Driver/Src/stm32f1xx_hal_dma.c **** 
 299              		.loc 1 293 0
 300 005e 0020     		movs	r0, #0
 301 0060 9863     		str	r0, [r3, #56]
 296:Drivers/STM32F1xx_HAL_Driver/Src/stm32f1xx_hal_dma.c **** 
 302              		.loc 1 296 0
 303 0062 83F82100 		strb	r0, [r3, #33]
 299:Drivers/STM32F1xx_HAL_Driver/Src/stm32f1xx_hal_dma.c **** 
 304              		.loc 1 299 0
 305 0066 83F82000 		strb	r0, [r3, #32]
 301:Drivers/STM32F1xx_HAL_Driver/Src/stm32f1xx_hal_dma.c **** }
 306              		.loc 1 301 0
 307 006a 7047     		bx	lr
 308              	.LVL16:
 309              	.L18:
 248:Drivers/STM32F1xx_HAL_Driver/Src/stm32f1xx_hal_dma.c ****   }
 310              		.loc 1 248 0
 311 006c 0120     		movs	r0, #1
 312              	.LVL17:
 302:Drivers/STM32F1xx_HAL_Driver/Src/stm32f1xx_hal_dma.c **** 
 313              		.loc 1 302 0
 314 006e 7047     		bx	lr
 315              	.L20:
 316              		.align	2
 317              	.L19:
 318 0070 07040240 		.word	1073873927
 319 0074 F8FFFDBF 		.word	-1073872904
ARM GAS  /tmp/ccfkKAY2.s 			page 23


 320 0078 CDCCCCCC 		.word	-858993459
 321 007c 00000240 		.word	1073872896
 322 0080 F8FBFDBF 		.word	-1073873928
 323 0084 00040240 		.word	1073873920
 324              		.cfi_endproc
 325              	.LFE65:
 327              		.section	.text.HAL_DMA_Start,"ax",%progbits
 328              		.align	2
 329              		.global	HAL_DMA_Start
 330              		.thumb
 331              		.thumb_func
 333              	HAL_DMA_Start:
 334              	.LFB66:
 337:Drivers/STM32F1xx_HAL_Driver/Src/stm32f1xx_hal_dma.c ****   HAL_StatusTypeDef status = HAL_OK;
 335              		.loc 1 337 0
 336              		.cfi_startproc
 337              		@ args = 0, pretend = 0, frame = 0
 338              		@ frame_needed = 0, uses_anonymous_args = 0
 339              	.LVL18:
 340 0000 70B5     		push	{r4, r5, r6, lr}
 341              	.LCFI6:
 342              		.cfi_def_cfa_offset 16
 343              		.cfi_offset 4, -16
 344              		.cfi_offset 5, -12
 345              		.cfi_offset 6, -8
 346              		.cfi_offset 14, -4
 347              	.LVL19:
 344:Drivers/STM32F1xx_HAL_Driver/Src/stm32f1xx_hal_dma.c **** 
 348              		.loc 1 344 0
 349 0002 90F82040 		ldrb	r4, [r0, #32]	@ zero_extendqisi2
 350 0006 012C     		cmp	r4, #1
 351 0008 20D0     		beq	.L24
 344:Drivers/STM32F1xx_HAL_Driver/Src/stm32f1xx_hal_dma.c **** 
 352              		.loc 1 344 0 is_stmt 0 discriminator 2
 353 000a 0124     		movs	r4, #1
 354 000c 80F82040 		strb	r4, [r0, #32]
 346:Drivers/STM32F1xx_HAL_Driver/Src/stm32f1xx_hal_dma.c ****   {
 355              		.loc 1 346 0 is_stmt 1 discriminator 2
 356 0010 90F82140 		ldrb	r4, [r0, #33]	@ zero_extendqisi2
 357 0014 012C     		cmp	r4, #1
 358 0016 14D1     		bne	.L23
 359 0018 0446     		mov	r4, r0
 349:Drivers/STM32F1xx_HAL_Driver/Src/stm32f1xx_hal_dma.c ****     hdma->ErrorCode = HAL_DMA_ERROR_NONE;
 360              		.loc 1 349 0
 361 001a 0220     		movs	r0, #2
 362              	.LVL20:
 363 001c 84F82100 		strb	r0, [r4, #33]
 350:Drivers/STM32F1xx_HAL_Driver/Src/stm32f1xx_hal_dma.c ****             
 364              		.loc 1 350 0
 365 0020 0025     		movs	r5, #0
 366 0022 A563     		str	r5, [r4, #56]
 353:Drivers/STM32F1xx_HAL_Driver/Src/stm32f1xx_hal_dma.c ****     
 367              		.loc 1 353 0
 368 0024 2668     		ldr	r6, [r4]
 369 0026 3068     		ldr	r0, [r6]
 370 0028 20F00100 		bic	r0, r0, #1
 371 002c 3060     		str	r0, [r6]
ARM GAS  /tmp/ccfkKAY2.s 			page 24


 356:Drivers/STM32F1xx_HAL_Driver/Src/stm32f1xx_hal_dma.c ****     
 372              		.loc 1 356 0
 373 002e 2046     		mov	r0, r4
 374 0030 FFF7FEFF 		bl	DMA_SetConfig
 375              	.LVL21:
 359:Drivers/STM32F1xx_HAL_Driver/Src/stm32f1xx_hal_dma.c ****   }
 376              		.loc 1 359 0
 377 0034 2268     		ldr	r2, [r4]
 378 0036 1368     		ldr	r3, [r2]
 379 0038 43F00103 		orr	r3, r3, #1
 380 003c 1360     		str	r3, [r2]
 338:Drivers/STM32F1xx_HAL_Driver/Src/stm32f1xx_hal_dma.c **** 
 381              		.loc 1 338 0
 382 003e 2846     		mov	r0, r5
 383 0040 70BD     		pop	{r4, r5, r6, pc}
 384              	.LVL22:
 385              	.L23:
 364:Drivers/STM32F1xx_HAL_Driver/Src/stm32f1xx_hal_dma.c ****    status = HAL_BUSY;
 386              		.loc 1 364 0
 387 0042 0023     		movs	r3, #0
 388              	.LVL23:
 389 0044 80F82030 		strb	r3, [r0, #32]
 390              	.LVL24:
 365:Drivers/STM32F1xx_HAL_Driver/Src/stm32f1xx_hal_dma.c ****   }  
 391              		.loc 1 365 0
 392 0048 0220     		movs	r0, #2
 393              	.LVL25:
 394 004a 70BD     		pop	{r4, r5, r6, pc}
 395              	.LVL26:
 396              	.L24:
 344:Drivers/STM32F1xx_HAL_Driver/Src/stm32f1xx_hal_dma.c **** 
 397              		.loc 1 344 0
 398 004c 0220     		movs	r0, #2
 399              	.LVL27:
 368:Drivers/STM32F1xx_HAL_Driver/Src/stm32f1xx_hal_dma.c **** 
 400              		.loc 1 368 0
 401 004e 70BD     		pop	{r4, r5, r6, pc}
 402              		.cfi_endproc
 403              	.LFE66:
 405              		.section	.text.HAL_DMA_Start_IT,"ax",%progbits
 406              		.align	2
 407              		.global	HAL_DMA_Start_IT
 408              		.thumb
 409              		.thumb_func
 411              	HAL_DMA_Start_IT:
 412              	.LFB67:
 380:Drivers/STM32F1xx_HAL_Driver/Src/stm32f1xx_hal_dma.c ****   HAL_StatusTypeDef status = HAL_OK;
 413              		.loc 1 380 0
 414              		.cfi_startproc
 415              		@ args = 0, pretend = 0, frame = 0
 416              		@ frame_needed = 0, uses_anonymous_args = 0
 417              	.LVL28:
 418 0000 38B5     		push	{r3, r4, r5, lr}
 419              	.LCFI7:
 420              		.cfi_def_cfa_offset 16
 421              		.cfi_offset 3, -16
 422              		.cfi_offset 4, -12
ARM GAS  /tmp/ccfkKAY2.s 			page 25


 423              		.cfi_offset 5, -8
 424              		.cfi_offset 14, -4
 425              	.LVL29:
 387:Drivers/STM32F1xx_HAL_Driver/Src/stm32f1xx_hal_dma.c ****   
 426              		.loc 1 387 0
 427 0002 90F82040 		ldrb	r4, [r0, #32]	@ zero_extendqisi2
 428 0006 012C     		cmp	r4, #1
 429 0008 32D0     		beq	.L31
 387:Drivers/STM32F1xx_HAL_Driver/Src/stm32f1xx_hal_dma.c ****   
 430              		.loc 1 387 0 is_stmt 0 discriminator 2
 431 000a 0124     		movs	r4, #1
 432 000c 80F82040 		strb	r4, [r0, #32]
 389:Drivers/STM32F1xx_HAL_Driver/Src/stm32f1xx_hal_dma.c ****   {
 433              		.loc 1 389 0 is_stmt 1 discriminator 2
 434 0010 90F82140 		ldrb	r4, [r0, #33]	@ zero_extendqisi2
 435 0014 012C     		cmp	r4, #1
 436 0016 26D1     		bne	.L28
 437 0018 0446     		mov	r4, r0
 392:Drivers/STM32F1xx_HAL_Driver/Src/stm32f1xx_hal_dma.c ****     hdma->ErrorCode = HAL_DMA_ERROR_NONE;
 438              		.loc 1 392 0
 439 001a 0220     		movs	r0, #2
 440              	.LVL30:
 441 001c 84F82100 		strb	r0, [r4, #33]
 393:Drivers/STM32F1xx_HAL_Driver/Src/stm32f1xx_hal_dma.c ****     
 442              		.loc 1 393 0
 443 0020 0020     		movs	r0, #0
 444 0022 A063     		str	r0, [r4, #56]
 396:Drivers/STM32F1xx_HAL_Driver/Src/stm32f1xx_hal_dma.c ****     
 445              		.loc 1 396 0
 446 0024 2568     		ldr	r5, [r4]
 447 0026 2868     		ldr	r0, [r5]
 448 0028 20F00100 		bic	r0, r0, #1
 449 002c 2860     		str	r0, [r5]
 399:Drivers/STM32F1xx_HAL_Driver/Src/stm32f1xx_hal_dma.c ****     
 450              		.loc 1 399 0
 451 002e 2046     		mov	r0, r4
 452 0030 FFF7FEFF 		bl	DMA_SetConfig
 453              	.LVL31:
 403:Drivers/STM32F1xx_HAL_Driver/Src/stm32f1xx_hal_dma.c ****     {
 454              		.loc 1 403 0
 455 0034 E36A     		ldr	r3, [r4, #44]
 456 0036 2BB1     		cbz	r3, .L29
 406:Drivers/STM32F1xx_HAL_Driver/Src/stm32f1xx_hal_dma.c ****     }
 457              		.loc 1 406 0
 458 0038 2268     		ldr	r2, [r4]
 459 003a 1368     		ldr	r3, [r2]
 460 003c 43F00E03 		orr	r3, r3, #14
 461 0040 1360     		str	r3, [r2]
 462 0042 09E0     		b	.L30
 463              	.L29:
 410:Drivers/STM32F1xx_HAL_Driver/Src/stm32f1xx_hal_dma.c ****       __HAL_DMA_ENABLE_IT(hdma, (DMA_IT_TC | DMA_IT_TE));
 464              		.loc 1 410 0
 465 0044 2268     		ldr	r2, [r4]
 466 0046 1368     		ldr	r3, [r2]
 467 0048 23F00403 		bic	r3, r3, #4
 468 004c 1360     		str	r3, [r2]
 411:Drivers/STM32F1xx_HAL_Driver/Src/stm32f1xx_hal_dma.c ****     }
ARM GAS  /tmp/ccfkKAY2.s 			page 26


 469              		.loc 1 411 0
 470 004e 2268     		ldr	r2, [r4]
 471 0050 1368     		ldr	r3, [r2]
 472 0052 43F00A03 		orr	r3, r3, #10
 473 0056 1360     		str	r3, [r2]
 474              	.L30:
 414:Drivers/STM32F1xx_HAL_Driver/Src/stm32f1xx_hal_dma.c ****   }
 475              		.loc 1 414 0
 476 0058 2268     		ldr	r2, [r4]
 477 005a 1368     		ldr	r3, [r2]
 478 005c 43F00103 		orr	r3, r3, #1
 479 0060 1360     		str	r3, [r2]
 381:Drivers/STM32F1xx_HAL_Driver/Src/stm32f1xx_hal_dma.c **** 
 480              		.loc 1 381 0
 481 0062 0020     		movs	r0, #0
 482 0064 38BD     		pop	{r3, r4, r5, pc}
 483              	.LVL32:
 484              	.L28:
 419:Drivers/STM32F1xx_HAL_Driver/Src/stm32f1xx_hal_dma.c **** 
 485              		.loc 1 419 0
 486 0066 0023     		movs	r3, #0
 487              	.LVL33:
 488 0068 80F82030 		strb	r3, [r0, #32]
 489              	.LVL34:
 422:Drivers/STM32F1xx_HAL_Driver/Src/stm32f1xx_hal_dma.c ****   }    
 490              		.loc 1 422 0
 491 006c 0220     		movs	r0, #2
 492              	.LVL35:
 493 006e 38BD     		pop	{r3, r4, r5, pc}
 494              	.LVL36:
 495              	.L31:
 387:Drivers/STM32F1xx_HAL_Driver/Src/stm32f1xx_hal_dma.c ****   
 496              		.loc 1 387 0
 497 0070 0220     		movs	r0, #2
 498              	.LVL37:
 425:Drivers/STM32F1xx_HAL_Driver/Src/stm32f1xx_hal_dma.c **** 
 499              		.loc 1 425 0
 500 0072 38BD     		pop	{r3, r4, r5, pc}
 501              		.cfi_endproc
 502              	.LFE67:
 504              		.section	.text.HAL_DMA_Abort,"ax",%progbits
 505              		.align	2
 506              		.global	HAL_DMA_Abort
 507              		.thumb
 508              		.thumb_func
 510              	HAL_DMA_Abort:
 511              	.LFB68:
 434:Drivers/STM32F1xx_HAL_Driver/Src/stm32f1xx_hal_dma.c ****   HAL_StatusTypeDef status = HAL_OK;
 512              		.loc 1 434 0
 513              		.cfi_startproc
 514              		@ args = 0, pretend = 0, frame = 0
 515              		@ frame_needed = 0, uses_anonymous_args = 0
 516              		@ link register save eliminated.
 517              	.LVL38:
 518 0000 0346     		mov	r3, r0
 519              	.LVL39:
 438:Drivers/STM32F1xx_HAL_Driver/Src/stm32f1xx_hal_dma.c ****     
ARM GAS  /tmp/ccfkKAY2.s 			page 27


 520              		.loc 1 438 0
 521 0002 0168     		ldr	r1, [r0]
 522 0004 0A68     		ldr	r2, [r1]
 523 0006 22F00E02 		bic	r2, r2, #14
 524 000a 0A60     		str	r2, [r1]
 441:Drivers/STM32F1xx_HAL_Driver/Src/stm32f1xx_hal_dma.c ****     
 525              		.loc 1 441 0
 526 000c 0168     		ldr	r1, [r0]
 527 000e 0A68     		ldr	r2, [r1]
 528 0010 22F00102 		bic	r2, r2, #1
 529 0014 0A60     		str	r2, [r1]
 444:Drivers/STM32F1xx_HAL_Driver/Src/stm32f1xx_hal_dma.c **** 
 530              		.loc 1 444 0
 531 0016 C06B     		ldr	r0, [r0, #60]
 532              	.LVL40:
 533 0018 1A6C     		ldr	r2, [r3, #64]
 534 001a 0121     		movs	r1, #1
 535 001c 01FA02F2 		lsl	r2, r1, r2
 536 0020 4260     		str	r2, [r0, #4]
 447:Drivers/STM32F1xx_HAL_Driver/Src/stm32f1xx_hal_dma.c **** 
 537              		.loc 1 447 0
 538 0022 83F82110 		strb	r1, [r3, #33]
 450:Drivers/STM32F1xx_HAL_Driver/Src/stm32f1xx_hal_dma.c ****   
 539              		.loc 1 450 0
 540 0026 0020     		movs	r0, #0
 541 0028 83F82000 		strb	r0, [r3, #32]
 453:Drivers/STM32F1xx_HAL_Driver/Src/stm32f1xx_hal_dma.c **** 
 542              		.loc 1 453 0
 543 002c 7047     		bx	lr
 544              		.cfi_endproc
 545              	.LFE68:
 547 002e 00BF     		.section	.text.HAL_DMA_Abort_IT,"ax",%progbits
 548              		.align	2
 549              		.global	HAL_DMA_Abort_IT
 550              		.thumb
 551              		.thumb_func
 553              	HAL_DMA_Abort_IT:
 554              	.LFB69:
 462:Drivers/STM32F1xx_HAL_Driver/Src/stm32f1xx_hal_dma.c ****   HAL_StatusTypeDef status = HAL_OK;
 555              		.loc 1 462 0
 556              		.cfi_startproc
 557              		@ args = 0, pretend = 0, frame = 0
 558              		@ frame_needed = 0, uses_anonymous_args = 0
 559              	.LVL41:
 560 0000 08B5     		push	{r3, lr}
 561              	.LCFI8:
 562              		.cfi_def_cfa_offset 8
 563              		.cfi_offset 3, -8
 564              		.cfi_offset 14, -4
 565              	.LVL42:
 465:Drivers/STM32F1xx_HAL_Driver/Src/stm32f1xx_hal_dma.c ****   {
 566              		.loc 1 465 0
 567 0002 90F82130 		ldrb	r3, [r0, #33]	@ zero_extendqisi2
 568 0006 022B     		cmp	r3, #2
 569 0008 03D0     		beq	.L35
 468:Drivers/STM32F1xx_HAL_Driver/Src/stm32f1xx_hal_dma.c ****         
 570              		.loc 1 468 0
ARM GAS  /tmp/ccfkKAY2.s 			page 28


 571 000a 0423     		movs	r3, #4
 572 000c 8363     		str	r3, [r0, #56]
 573              	.LVL43:
 470:Drivers/STM32F1xx_HAL_Driver/Src/stm32f1xx_hal_dma.c ****   }
 574              		.loc 1 470 0
 575 000e 0120     		movs	r0, #1
 576              	.LVL44:
 577 0010 08BD     		pop	{r3, pc}
 578              	.LVL45:
 579              	.L35:
 475:Drivers/STM32F1xx_HAL_Driver/Src/stm32f1xx_hal_dma.c **** 
 580              		.loc 1 475 0
 581 0012 0268     		ldr	r2, [r0]
 582 0014 1368     		ldr	r3, [r2]
 583 0016 23F00E03 		bic	r3, r3, #14
 584 001a 1360     		str	r3, [r2]
 478:Drivers/STM32F1xx_HAL_Driver/Src/stm32f1xx_hal_dma.c **** 
 585              		.loc 1 478 0
 586 001c 0268     		ldr	r2, [r0]
 587 001e 1368     		ldr	r3, [r2]
 588 0020 23F00103 		bic	r3, r3, #1
 589 0024 1360     		str	r3, [r2]
 481:Drivers/STM32F1xx_HAL_Driver/Src/stm32f1xx_hal_dma.c **** 
 590              		.loc 1 481 0
 591 0026 0368     		ldr	r3, [r0]
 592 0028 4B4A     		ldr	r2, .L65
 593 002a 9342     		cmp	r3, r2
 594 002c 43D9     		bls	.L37
 481:Drivers/STM32F1xx_HAL_Driver/Src/stm32f1xx_hal_dma.c **** 
 595              		.loc 1 481 0 is_stmt 0 discriminator 1
 596 002e 783A     		subs	r2, r2, #120
 597 0030 9342     		cmp	r3, r2
 598 0032 21D0     		beq	.L41
 481:Drivers/STM32F1xx_HAL_Driver/Src/stm32f1xx_hal_dma.c **** 
 599              		.loc 1 481 0 discriminator 3
 600 0034 1432     		adds	r2, r2, #20
 601 0036 9342     		cmp	r3, r2
 602 0038 20D0     		beq	.L42
 481:Drivers/STM32F1xx_HAL_Driver/Src/stm32f1xx_hal_dma.c **** 
 603              		.loc 1 481 0 discriminator 5
 604 003a 1432     		adds	r2, r2, #20
 605 003c 9342     		cmp	r3, r2
 606 003e 1FD0     		beq	.L43
 481:Drivers/STM32F1xx_HAL_Driver/Src/stm32f1xx_hal_dma.c **** 
 607              		.loc 1 481 0 discriminator 7
 608 0040 1432     		adds	r2, r2, #20
 609 0042 9342     		cmp	r3, r2
 610 0044 1FD0     		beq	.L44
 481:Drivers/STM32F1xx_HAL_Driver/Src/stm32f1xx_hal_dma.c **** 
 611              		.loc 1 481 0 discriminator 9
 612 0046 1432     		adds	r2, r2, #20
 613 0048 9342     		cmp	r3, r2
 614 004a 1FD0     		beq	.L45
 481:Drivers/STM32F1xx_HAL_Driver/Src/stm32f1xx_hal_dma.c **** 
 615              		.loc 1 481 0 discriminator 11
 616 004c 1432     		adds	r2, r2, #20
 617 004e 9342     		cmp	r3, r2
ARM GAS  /tmp/ccfkKAY2.s 			page 29


 618 0050 1FD0     		beq	.L46
 481:Drivers/STM32F1xx_HAL_Driver/Src/stm32f1xx_hal_dma.c **** 
 619              		.loc 1 481 0 discriminator 13
 620 0052 1432     		adds	r2, r2, #20
 621 0054 9342     		cmp	r3, r2
 622 0056 1FD0     		beq	.L47
 481:Drivers/STM32F1xx_HAL_Driver/Src/stm32f1xx_hal_dma.c **** 
 623              		.loc 1 481 0 discriminator 15
 624 0058 02F56272 		add	r2, r2, #904
 625 005c 9342     		cmp	r3, r2
 626 005e 1ED0     		beq	.L48
 481:Drivers/STM32F1xx_HAL_Driver/Src/stm32f1xx_hal_dma.c **** 
 627              		.loc 1 481 0 discriminator 17
 628 0060 1432     		adds	r2, r2, #20
 629 0062 9342     		cmp	r3, r2
 630 0064 1DD0     		beq	.L49
 481:Drivers/STM32F1xx_HAL_Driver/Src/stm32f1xx_hal_dma.c **** 
 631              		.loc 1 481 0 discriminator 19
 632 0066 1432     		adds	r2, r2, #20
 633 0068 9342     		cmp	r3, r2
 634 006a 1CD0     		beq	.L50
 481:Drivers/STM32F1xx_HAL_Driver/Src/stm32f1xx_hal_dma.c **** 
 635              		.loc 1 481 0 discriminator 21
 636 006c 1432     		adds	r2, r2, #20
 637 006e 9342     		cmp	r3, r2
 638 0070 1CD1     		bne	.L51
 481:Drivers/STM32F1xx_HAL_Driver/Src/stm32f1xx_hal_dma.c **** 
 639              		.loc 1 481 0
 640 0072 4FF48052 		mov	r2, #4096
 641 0076 1BE0     		b	.L38
 642              	.L41:
 643 0078 0122     		movs	r2, #1
 644 007a 19E0     		b	.L38
 645              	.L42:
 646 007c 1022     		movs	r2, #16
 647 007e 17E0     		b	.L38
 648              	.L43:
 649 0080 4FF48072 		mov	r2, #256
 650 0084 14E0     		b	.L38
 651              	.L44:
 652 0086 4FF48052 		mov	r2, #4096
 653 008a 11E0     		b	.L38
 654              	.L45:
 655 008c 4FF48032 		mov	r2, #65536
 656 0090 0EE0     		b	.L38
 657              	.L46:
 658 0092 4FF48012 		mov	r2, #1048576
 659 0096 0BE0     		b	.L38
 660              	.L47:
 661 0098 4FF08072 		mov	r2, #16777216
 662 009c 08E0     		b	.L38
 663              	.L48:
 664 009e 0122     		movs	r2, #1
 665 00a0 06E0     		b	.L38
 666              	.L49:
 667 00a2 1022     		movs	r2, #16
 668 00a4 04E0     		b	.L38
ARM GAS  /tmp/ccfkKAY2.s 			page 30


 669              	.L50:
 670 00a6 4FF48072 		mov	r2, #256
 671 00aa 01E0     		b	.L38
 672              	.L51:
 673 00ac 4FF48032 		mov	r2, #65536
 674              	.L38:
 481:Drivers/STM32F1xx_HAL_Driver/Src/stm32f1xx_hal_dma.c **** 
 675              		.loc 1 481 0 discriminator 46
 676 00b0 2A4B     		ldr	r3, .L65+4
 677 00b2 5A60     		str	r2, [r3, #4]
 678 00b4 42E0     		b	.L39
 679              	.L37:
 481:Drivers/STM32F1xx_HAL_Driver/Src/stm32f1xx_hal_dma.c **** 
 680              		.loc 1 481 0 discriminator 2
 681 00b6 2A4A     		ldr	r2, .L65+8
 682 00b8 9342     		cmp	r3, r2
 683 00ba 21D0     		beq	.L52
 481:Drivers/STM32F1xx_HAL_Driver/Src/stm32f1xx_hal_dma.c **** 
 684              		.loc 1 481 0 discriminator 47
 685 00bc 1432     		adds	r2, r2, #20
 686 00be 9342     		cmp	r3, r2
 687 00c0 20D0     		beq	.L53
 481:Drivers/STM32F1xx_HAL_Driver/Src/stm32f1xx_hal_dma.c **** 
 688              		.loc 1 481 0 discriminator 49
 689 00c2 1432     		adds	r2, r2, #20
 690 00c4 9342     		cmp	r3, r2
 691 00c6 1FD0     		beq	.L54
 481:Drivers/STM32F1xx_HAL_Driver/Src/stm32f1xx_hal_dma.c **** 
 692              		.loc 1 481 0 discriminator 51
 693 00c8 1432     		adds	r2, r2, #20
 694 00ca 9342     		cmp	r3, r2
 695 00cc 1FD0     		beq	.L55
 481:Drivers/STM32F1xx_HAL_Driver/Src/stm32f1xx_hal_dma.c **** 
 696              		.loc 1 481 0 discriminator 53
 697 00ce 1432     		adds	r2, r2, #20
 698 00d0 9342     		cmp	r3, r2
 699 00d2 1FD0     		beq	.L56
 481:Drivers/STM32F1xx_HAL_Driver/Src/stm32f1xx_hal_dma.c **** 
 700              		.loc 1 481 0 discriminator 55
 701 00d4 1432     		adds	r2, r2, #20
 702 00d6 9342     		cmp	r3, r2
 703 00d8 1FD0     		beq	.L57
 481:Drivers/STM32F1xx_HAL_Driver/Src/stm32f1xx_hal_dma.c **** 
 704              		.loc 1 481 0 discriminator 57
 705 00da 1432     		adds	r2, r2, #20
 706 00dc 9342     		cmp	r3, r2
 707 00de 1FD0     		beq	.L58
 481:Drivers/STM32F1xx_HAL_Driver/Src/stm32f1xx_hal_dma.c **** 
 708              		.loc 1 481 0 discriminator 59
 709 00e0 02F56272 		add	r2, r2, #904
 710 00e4 9342     		cmp	r3, r2
 711 00e6 1ED0     		beq	.L59
 481:Drivers/STM32F1xx_HAL_Driver/Src/stm32f1xx_hal_dma.c **** 
 712              		.loc 1 481 0 discriminator 61
 713 00e8 1432     		adds	r2, r2, #20
 714 00ea 9342     		cmp	r3, r2
 715 00ec 1DD0     		beq	.L60
ARM GAS  /tmp/ccfkKAY2.s 			page 31


 481:Drivers/STM32F1xx_HAL_Driver/Src/stm32f1xx_hal_dma.c **** 
 716              		.loc 1 481 0 discriminator 63
 717 00ee 1432     		adds	r2, r2, #20
 718 00f0 9342     		cmp	r3, r2
 719 00f2 1CD0     		beq	.L61
 481:Drivers/STM32F1xx_HAL_Driver/Src/stm32f1xx_hal_dma.c **** 
 720              		.loc 1 481 0 discriminator 65
 721 00f4 1432     		adds	r2, r2, #20
 722 00f6 9342     		cmp	r3, r2
 723 00f8 1CD1     		bne	.L62
 481:Drivers/STM32F1xx_HAL_Driver/Src/stm32f1xx_hal_dma.c **** 
 724              		.loc 1 481 0
 725 00fa 4FF48052 		mov	r2, #4096
 726 00fe 1BE0     		b	.L40
 727              	.L52:
 728 0100 0122     		movs	r2, #1
 729 0102 19E0     		b	.L40
 730              	.L53:
 731 0104 1022     		movs	r2, #16
 732 0106 17E0     		b	.L40
 733              	.L54:
 734 0108 4FF48072 		mov	r2, #256
 735 010c 14E0     		b	.L40
 736              	.L55:
 737 010e 4FF48052 		mov	r2, #4096
 738 0112 11E0     		b	.L40
 739              	.L56:
 740 0114 4FF48032 		mov	r2, #65536
 741 0118 0EE0     		b	.L40
 742              	.L57:
 743 011a 4FF48012 		mov	r2, #1048576
 744 011e 0BE0     		b	.L40
 745              	.L58:
 746 0120 4FF08072 		mov	r2, #16777216
 747 0124 08E0     		b	.L40
 748              	.L59:
 749 0126 0122     		movs	r2, #1
 750 0128 06E0     		b	.L40
 751              	.L60:
 752 012a 1022     		movs	r2, #16
 753 012c 04E0     		b	.L40
 754              	.L61:
 755 012e 4FF48072 		mov	r2, #256
 756 0132 01E0     		b	.L40
 757              	.L62:
 758 0134 4FF48032 		mov	r2, #65536
 759              	.L40:
 481:Drivers/STM32F1xx_HAL_Driver/Src/stm32f1xx_hal_dma.c **** 
 760              		.loc 1 481 0 discriminator 90
 761 0138 0A4B     		ldr	r3, .L65+12
 762 013a 5A60     		str	r2, [r3, #4]
 763              	.L39:
 484:Drivers/STM32F1xx_HAL_Driver/Src/stm32f1xx_hal_dma.c **** 
 764              		.loc 1 484 0 is_stmt 1
 765 013c 0123     		movs	r3, #1
 766 013e 80F82130 		strb	r3, [r0, #33]
 487:Drivers/STM32F1xx_HAL_Driver/Src/stm32f1xx_hal_dma.c **** 
ARM GAS  /tmp/ccfkKAY2.s 			page 32


 767              		.loc 1 487 0
 768 0142 0023     		movs	r3, #0
 769 0144 80F82030 		strb	r3, [r0, #32]
 490:Drivers/STM32F1xx_HAL_Driver/Src/stm32f1xx_hal_dma.c ****     {
 770              		.loc 1 490 0
 771 0148 436B     		ldr	r3, [r0, #52]
 772 014a 13B1     		cbz	r3, .L63
 492:Drivers/STM32F1xx_HAL_Driver/Src/stm32f1xx_hal_dma.c ****     } 
 773              		.loc 1 492 0
 774 014c 9847     		blx	r3
 775              	.LVL46:
 463:Drivers/STM32F1xx_HAL_Driver/Src/stm32f1xx_hal_dma.c ****   
 776              		.loc 1 463 0
 777 014e 0020     		movs	r0, #0
 778 0150 08BD     		pop	{r3, pc}
 779              	.LVL47:
 780              	.L63:
 781 0152 0020     		movs	r0, #0
 782              	.LVL48:
 496:Drivers/STM32F1xx_HAL_Driver/Src/stm32f1xx_hal_dma.c **** 
 783              		.loc 1 496 0
 784 0154 08BD     		pop	{r3, pc}
 785              	.L66:
 786 0156 00BF     		.align	2
 787              	.L65:
 788 0158 80000240 		.word	1073873024
 789 015c 00040240 		.word	1073873920
 790 0160 08000240 		.word	1073872904
 791 0164 00000240 		.word	1073872896
 792              		.cfi_endproc
 793              	.LFE69:
 795              		.section	.text.HAL_DMA_PollForTransfer,"ax",%progbits
 796              		.align	2
 797              		.global	HAL_DMA_PollForTransfer
 798              		.thumb
 799              		.thumb_func
 801              	HAL_DMA_PollForTransfer:
 802              	.LFB70:
 507:Drivers/STM32F1xx_HAL_Driver/Src/stm32f1xx_hal_dma.c ****   uint32_t temp;
 803              		.loc 1 507 0
 804              		.cfi_startproc
 805              		@ args = 0, pretend = 0, frame = 0
 806              		@ frame_needed = 0, uses_anonymous_args = 0
 807              	.LVL49:
 511:Drivers/STM32F1xx_HAL_Driver/Src/stm32f1xx_hal_dma.c ****   {
 808              		.loc 1 511 0
 809 0000 90F82130 		ldrb	r3, [r0, #33]	@ zero_extendqisi2
 810 0004 022B     		cmp	r3, #2
 811 0006 06D0     		beq	.L68
 514:Drivers/STM32F1xx_HAL_Driver/Src/stm32f1xx_hal_dma.c ****     __HAL_UNLOCK(hdma);
 812              		.loc 1 514 0
 813 0008 0423     		movs	r3, #4
 814 000a 8363     		str	r3, [r0, #56]
 515:Drivers/STM32F1xx_HAL_Driver/Src/stm32f1xx_hal_dma.c ****     return HAL_ERROR;
 815              		.loc 1 515 0
 816 000c 0023     		movs	r3, #0
 817 000e 80F82030 		strb	r3, [r0, #32]
ARM GAS  /tmp/ccfkKAY2.s 			page 33


 516:Drivers/STM32F1xx_HAL_Driver/Src/stm32f1xx_hal_dma.c ****   }
 818              		.loc 1 516 0
 819 0012 0120     		movs	r0, #1
 820              	.LVL50:
 599:Drivers/STM32F1xx_HAL_Driver/Src/stm32f1xx_hal_dma.c **** 
 821              		.loc 1 599 0
 822 0014 7047     		bx	lr
 823              	.LVL51:
 824              	.L68:
 507:Drivers/STM32F1xx_HAL_Driver/Src/stm32f1xx_hal_dma.c ****   uint32_t temp;
 825              		.loc 1 507 0
 826 0016 2DE9F041 		push	{r4, r5, r6, r7, r8, lr}
 827              	.LCFI9:
 828              		.cfi_def_cfa_offset 24
 829              		.cfi_offset 4, -24
 830              		.cfi_offset 5, -20
 831              		.cfi_offset 6, -16
 832              		.cfi_offset 7, -12
 833              		.cfi_offset 8, -8
 834              		.cfi_offset 14, -4
 520:Drivers/STM32F1xx_HAL_Driver/Src/stm32f1xx_hal_dma.c ****   {
 835              		.loc 1 520 0
 836 001a 0368     		ldr	r3, [r0]
 837 001c 1C68     		ldr	r4, [r3]
 838 001e 14F0200F 		tst	r4, #32
 839 0022 05D0     		beq	.L70
 522:Drivers/STM32F1xx_HAL_Driver/Src/stm32f1xx_hal_dma.c ****     return HAL_ERROR;
 840              		.loc 1 522 0
 841 0024 4FF48073 		mov	r3, #256
 842 0028 8363     		str	r3, [r0, #56]
 523:Drivers/STM32F1xx_HAL_Driver/Src/stm32f1xx_hal_dma.c ****   }
 843              		.loc 1 523 0
 844 002a 0120     		movs	r0, #1
 845              	.LVL52:
 846 002c BDE8F081 		pop	{r4, r5, r6, r7, r8, pc}
 847              	.LVL53:
 848              	.L70:
 527:Drivers/STM32F1xx_HAL_Driver/Src/stm32f1xx_hal_dma.c ****   {
 849              		.loc 1 527 0
 850 0030 21BB     		cbnz	r1, .L71
 530:Drivers/STM32F1xx_HAL_Driver/Src/stm32f1xx_hal_dma.c ****   }
 851              		.loc 1 530 0
 852 0032 A74C     		ldr	r4, .L182
 853 0034 A342     		cmp	r3, r4
 854 0036 46D0     		beq	.L93
 530:Drivers/STM32F1xx_HAL_Driver/Src/stm32f1xx_hal_dma.c ****   }
 855              		.loc 1 530 0 is_stmt 0 discriminator 1
 856 0038 1434     		adds	r4, r4, #20
 857 003a A342     		cmp	r3, r4
 858 003c 45D0     		beq	.L94
 530:Drivers/STM32F1xx_HAL_Driver/Src/stm32f1xx_hal_dma.c ****   }
 859              		.loc 1 530 0 discriminator 3
 860 003e 1434     		adds	r4, r4, #20
 861 0040 A342     		cmp	r3, r4
 862 0042 44D0     		beq	.L95
 530:Drivers/STM32F1xx_HAL_Driver/Src/stm32f1xx_hal_dma.c ****   }
 863              		.loc 1 530 0 discriminator 5
ARM GAS  /tmp/ccfkKAY2.s 			page 34


 864 0044 1434     		adds	r4, r4, #20
 865 0046 A342     		cmp	r3, r4
 866 0048 44D0     		beq	.L96
 530:Drivers/STM32F1xx_HAL_Driver/Src/stm32f1xx_hal_dma.c ****   }
 867              		.loc 1 530 0 discriminator 7
 868 004a 1434     		adds	r4, r4, #20
 869 004c A342     		cmp	r3, r4
 870 004e 44D0     		beq	.L97
 530:Drivers/STM32F1xx_HAL_Driver/Src/stm32f1xx_hal_dma.c ****   }
 871              		.loc 1 530 0 discriminator 9
 872 0050 1434     		adds	r4, r4, #20
 873 0052 A342     		cmp	r3, r4
 874 0054 44D0     		beq	.L98
 530:Drivers/STM32F1xx_HAL_Driver/Src/stm32f1xx_hal_dma.c ****   }
 875              		.loc 1 530 0 discriminator 11
 876 0056 1434     		adds	r4, r4, #20
 877 0058 A342     		cmp	r3, r4
 878 005a 44D0     		beq	.L99
 530:Drivers/STM32F1xx_HAL_Driver/Src/stm32f1xx_hal_dma.c ****   }
 879              		.loc 1 530 0 discriminator 13
 880 005c 04F56274 		add	r4, r4, #904
 881 0060 A342     		cmp	r3, r4
 882 0062 43D0     		beq	.L100
 530:Drivers/STM32F1xx_HAL_Driver/Src/stm32f1xx_hal_dma.c ****   }
 883              		.loc 1 530 0 discriminator 15
 884 0064 1434     		adds	r4, r4, #20
 885 0066 A342     		cmp	r3, r4
 886 0068 42D0     		beq	.L101
 530:Drivers/STM32F1xx_HAL_Driver/Src/stm32f1xx_hal_dma.c ****   }
 887              		.loc 1 530 0 discriminator 17
 888 006a 1434     		adds	r4, r4, #20
 889 006c A342     		cmp	r3, r4
 890 006e 41D0     		beq	.L102
 530:Drivers/STM32F1xx_HAL_Driver/Src/stm32f1xx_hal_dma.c ****   }
 891              		.loc 1 530 0 discriminator 19
 892 0070 1434     		adds	r4, r4, #20
 893 0072 A342     		cmp	r3, r4
 894 0074 41D1     		bne	.L103
 530:Drivers/STM32F1xx_HAL_Driver/Src/stm32f1xx_hal_dma.c ****   }
 895              		.loc 1 530 0
 896 0076 4FF40056 		mov	r6, #8192
 897 007a 5DE0     		b	.L72
 898              	.L71:
 535:Drivers/STM32F1xx_HAL_Driver/Src/stm32f1xx_hal_dma.c ****   }
 899              		.loc 1 535 0 is_stmt 1
 900 007c 944C     		ldr	r4, .L182
 901 007e A342     		cmp	r3, r4
 902 0080 3ED0     		beq	.L104
 535:Drivers/STM32F1xx_HAL_Driver/Src/stm32f1xx_hal_dma.c ****   }
 903              		.loc 1 535 0 is_stmt 0 discriminator 1
 904 0082 1434     		adds	r4, r4, #20
 905 0084 A342     		cmp	r3, r4
 906 0086 3DD0     		beq	.L105
 535:Drivers/STM32F1xx_HAL_Driver/Src/stm32f1xx_hal_dma.c ****   }
 907              		.loc 1 535 0 discriminator 3
 908 0088 1434     		adds	r4, r4, #20
 909 008a A342     		cmp	r3, r4
ARM GAS  /tmp/ccfkKAY2.s 			page 35


 910 008c 3CD0     		beq	.L106
 535:Drivers/STM32F1xx_HAL_Driver/Src/stm32f1xx_hal_dma.c ****   }
 911              		.loc 1 535 0 discriminator 5
 912 008e 1434     		adds	r4, r4, #20
 913 0090 A342     		cmp	r3, r4
 914 0092 3CD0     		beq	.L107
 535:Drivers/STM32F1xx_HAL_Driver/Src/stm32f1xx_hal_dma.c ****   }
 915              		.loc 1 535 0 discriminator 7
 916 0094 1434     		adds	r4, r4, #20
 917 0096 A342     		cmp	r3, r4
 918 0098 3CD0     		beq	.L108
 535:Drivers/STM32F1xx_HAL_Driver/Src/stm32f1xx_hal_dma.c ****   }
 919              		.loc 1 535 0 discriminator 9
 920 009a 1434     		adds	r4, r4, #20
 921 009c A342     		cmp	r3, r4
 922 009e 3CD0     		beq	.L109
 535:Drivers/STM32F1xx_HAL_Driver/Src/stm32f1xx_hal_dma.c ****   }
 923              		.loc 1 535 0 discriminator 11
 924 00a0 1434     		adds	r4, r4, #20
 925 00a2 A342     		cmp	r3, r4
 926 00a4 3CD0     		beq	.L110
 535:Drivers/STM32F1xx_HAL_Driver/Src/stm32f1xx_hal_dma.c ****   }
 927              		.loc 1 535 0 discriminator 13
 928 00a6 04F56274 		add	r4, r4, #904
 929 00aa A342     		cmp	r3, r4
 930 00ac 3BD0     		beq	.L111
 535:Drivers/STM32F1xx_HAL_Driver/Src/stm32f1xx_hal_dma.c ****   }
 931              		.loc 1 535 0 discriminator 15
 932 00ae 1434     		adds	r4, r4, #20
 933 00b0 A342     		cmp	r3, r4
 934 00b2 3AD0     		beq	.L112
 535:Drivers/STM32F1xx_HAL_Driver/Src/stm32f1xx_hal_dma.c ****   }
 935              		.loc 1 535 0 discriminator 17
 936 00b4 1434     		adds	r4, r4, #20
 937 00b6 A342     		cmp	r3, r4
 938 00b8 39D0     		beq	.L113
 535:Drivers/STM32F1xx_HAL_Driver/Src/stm32f1xx_hal_dma.c ****   }
 939              		.loc 1 535 0 discriminator 19
 940 00ba 1434     		adds	r4, r4, #20
 941 00bc A342     		cmp	r3, r4
 942 00be 39D1     		bne	.L114
 535:Drivers/STM32F1xx_HAL_Driver/Src/stm32f1xx_hal_dma.c ****   }
 943              		.loc 1 535 0
 944 00c0 4FF48046 		mov	r6, #16384
 945 00c4 38E0     		b	.L72
 946              	.L93:
 530:Drivers/STM32F1xx_HAL_Driver/Src/stm32f1xx_hal_dma.c ****   }
 947              		.loc 1 530 0 is_stmt 1
 948 00c6 0226     		movs	r6, #2
 949 00c8 36E0     		b	.L72
 950              	.L94:
 951 00ca 2026     		movs	r6, #32
 952 00cc 34E0     		b	.L72
 953              	.L95:
 954 00ce 4FF40076 		mov	r6, #512
 955 00d2 31E0     		b	.L72
 956              	.L96:
ARM GAS  /tmp/ccfkKAY2.s 			page 36


 957 00d4 4FF40056 		mov	r6, #8192
 958 00d8 2EE0     		b	.L72
 959              	.L97:
 960 00da 4FF40036 		mov	r6, #131072
 961 00de 2BE0     		b	.L72
 962              	.L98:
 963 00e0 4FF40016 		mov	r6, #2097152
 964 00e4 28E0     		b	.L72
 965              	.L99:
 966 00e6 4FF00076 		mov	r6, #33554432
 967 00ea 25E0     		b	.L72
 968              	.L100:
 969 00ec 0226     		movs	r6, #2
 970 00ee 23E0     		b	.L72
 971              	.L101:
 972 00f0 2026     		movs	r6, #32
 973 00f2 21E0     		b	.L72
 974              	.L102:
 975 00f4 4FF40076 		mov	r6, #512
 976 00f8 1EE0     		b	.L72
 977              	.L103:
 978 00fa 4FF40036 		mov	r6, #131072
 979 00fe 1BE0     		b	.L72
 980              	.L104:
 535:Drivers/STM32F1xx_HAL_Driver/Src/stm32f1xx_hal_dma.c ****   }
 981              		.loc 1 535 0
 982 0100 0426     		movs	r6, #4
 983 0102 19E0     		b	.L72
 984              	.L105:
 985 0104 4026     		movs	r6, #64
 986 0106 17E0     		b	.L72
 987              	.L106:
 988 0108 4FF48066 		mov	r6, #1024
 989 010c 14E0     		b	.L72
 990              	.L107:
 991 010e 4FF48046 		mov	r6, #16384
 992 0112 11E0     		b	.L72
 993              	.L108:
 994 0114 4FF48026 		mov	r6, #262144
 995 0118 0EE0     		b	.L72
 996              	.L109:
 997 011a 4FF48006 		mov	r6, #4194304
 998 011e 0BE0     		b	.L72
 999              	.L110:
 1000 0120 4FF08066 		mov	r6, #67108864
 1001 0124 08E0     		b	.L72
 1002              	.L111:
 1003 0126 0426     		movs	r6, #4
 1004 0128 06E0     		b	.L72
 1005              	.L112:
 1006 012a 4026     		movs	r6, #64
 1007 012c 04E0     		b	.L72
 1008              	.L113:
 1009 012e 4FF48066 		mov	r6, #1024
 1010 0132 01E0     		b	.L72
 1011              	.L114:
 1012 0134 4FF48026 		mov	r6, #262144
ARM GAS  /tmp/ccfkKAY2.s 			page 37


 1013              	.L72:
 1014 0138 1546     		mov	r5, r2
 1015 013a 0F46     		mov	r7, r1
 1016 013c 0446     		mov	r4, r0
 1017              	.LVL54:
 539:Drivers/STM32F1xx_HAL_Driver/Src/stm32f1xx_hal_dma.c **** 
 1018              		.loc 1 539 0
 1019 013e FFF7FEFF 		bl	HAL_GetTick
 1020              	.LVL55:
 1021 0142 8046     		mov	r8, r0
 1022              	.LVL56:
 541:Drivers/STM32F1xx_HAL_Driver/Src/stm32f1xx_hal_dma.c ****   {
 1023              		.loc 1 541 0
 1024 0144 B9E0     		b	.L79
 1025              	.LVL57:
 1026              	.L83:
 543:Drivers/STM32F1xx_HAL_Driver/Src/stm32f1xx_hal_dma.c ****     {
 1027              		.loc 1 543 0
 1028 0146 634A     		ldr	r2, .L182+4
 1029 0148 9342     		cmp	r3, r2
 1030 014a 48D9     		bls	.L74
 543:Drivers/STM32F1xx_HAL_Driver/Src/stm32f1xx_hal_dma.c ****     {
 1031              		.loc 1 543 0 is_stmt 0 discriminator 1
 1032 014c 02F56072 		add	r2, r2, #896
 1033 0150 1268     		ldr	r2, [r2]
 1034 0152 5F49     		ldr	r1, .L182
 1035 0154 8B42     		cmp	r3, r1
 1036 0156 21D0     		beq	.L115
 543:Drivers/STM32F1xx_HAL_Driver/Src/stm32f1xx_hal_dma.c ****     {
 1037              		.loc 1 543 0 discriminator 3
 1038 0158 1431     		adds	r1, r1, #20
 1039 015a 8B42     		cmp	r3, r1
 1040 015c 20D0     		beq	.L116
 543:Drivers/STM32F1xx_HAL_Driver/Src/stm32f1xx_hal_dma.c ****     {
 1041              		.loc 1 543 0 discriminator 5
 1042 015e 1431     		adds	r1, r1, #20
 1043 0160 8B42     		cmp	r3, r1
 1044 0162 1FD0     		beq	.L117
 543:Drivers/STM32F1xx_HAL_Driver/Src/stm32f1xx_hal_dma.c ****     {
 1045              		.loc 1 543 0 discriminator 7
 1046 0164 1431     		adds	r1, r1, #20
 1047 0166 8B42     		cmp	r3, r1
 1048 0168 1FD0     		beq	.L118
 543:Drivers/STM32F1xx_HAL_Driver/Src/stm32f1xx_hal_dma.c ****     {
 1049              		.loc 1 543 0 discriminator 9
 1050 016a 1431     		adds	r1, r1, #20
 1051 016c 8B42     		cmp	r3, r1
 1052 016e 1FD0     		beq	.L119
 543:Drivers/STM32F1xx_HAL_Driver/Src/stm32f1xx_hal_dma.c ****     {
 1053              		.loc 1 543 0 discriminator 11
 1054 0170 1431     		adds	r1, r1, #20
 1055 0172 8B42     		cmp	r3, r1
 1056 0174 1FD0     		beq	.L120
 543:Drivers/STM32F1xx_HAL_Driver/Src/stm32f1xx_hal_dma.c ****     {
 1057              		.loc 1 543 0 discriminator 13
 1058 0176 1431     		adds	r1, r1, #20
 1059 0178 8B42     		cmp	r3, r1
ARM GAS  /tmp/ccfkKAY2.s 			page 38


 1060 017a 1FD0     		beq	.L121
 543:Drivers/STM32F1xx_HAL_Driver/Src/stm32f1xx_hal_dma.c ****     {
 1061              		.loc 1 543 0 discriminator 15
 1062 017c 01F56271 		add	r1, r1, #904
 1063 0180 8B42     		cmp	r3, r1
 1064 0182 1ED0     		beq	.L122
 543:Drivers/STM32F1xx_HAL_Driver/Src/stm32f1xx_hal_dma.c ****     {
 1065              		.loc 1 543 0 discriminator 17
 1066 0184 1431     		adds	r1, r1, #20
 1067 0186 8B42     		cmp	r3, r1
 1068 0188 1DD0     		beq	.L123
 543:Drivers/STM32F1xx_HAL_Driver/Src/stm32f1xx_hal_dma.c ****     {
 1069              		.loc 1 543 0 discriminator 19
 1070 018a 1431     		adds	r1, r1, #20
 1071 018c 8B42     		cmp	r3, r1
 1072 018e 1CD0     		beq	.L124
 543:Drivers/STM32F1xx_HAL_Driver/Src/stm32f1xx_hal_dma.c ****     {
 1073              		.loc 1 543 0 discriminator 21
 1074 0190 1431     		adds	r1, r1, #20
 1075 0192 8B42     		cmp	r3, r1
 1076 0194 1CD1     		bne	.L125
 543:Drivers/STM32F1xx_HAL_Driver/Src/stm32f1xx_hal_dma.c ****     {
 1077              		.loc 1 543 0
 1078 0196 4FF40043 		mov	r3, #32768
 1079 019a 1BE0     		b	.L75
 1080              	.L115:
 1081 019c 0823     		movs	r3, #8
 1082 019e 19E0     		b	.L75
 1083              	.L116:
 1084 01a0 8023     		movs	r3, #128
 1085 01a2 17E0     		b	.L75
 1086              	.L117:
 1087 01a4 4FF40063 		mov	r3, #2048
 1088 01a8 14E0     		b	.L75
 1089              	.L118:
 1090 01aa 4FF40043 		mov	r3, #32768
 1091 01ae 11E0     		b	.L75
 1092              	.L119:
 1093 01b0 4FF40023 		mov	r3, #524288
 1094 01b4 0EE0     		b	.L75
 1095              	.L120:
 1096 01b6 4FF40003 		mov	r3, #8388608
 1097 01ba 0BE0     		b	.L75
 1098              	.L121:
 1099 01bc 4FF00063 		mov	r3, #134217728
 1100 01c0 08E0     		b	.L75
 1101              	.L122:
 1102 01c2 0823     		movs	r3, #8
 1103 01c4 06E0     		b	.L75
 1104              	.L123:
 1105 01c6 8023     		movs	r3, #128
 1106 01c8 04E0     		b	.L75
 1107              	.L124:
 1108 01ca 4FF40063 		mov	r3, #2048
 1109 01ce 01E0     		b	.L75
 1110              	.L125:
 1111 01d0 4FF40023 		mov	r3, #524288
ARM GAS  /tmp/ccfkKAY2.s 			page 39


 1112              	.L75:
 543:Drivers/STM32F1xx_HAL_Driver/Src/stm32f1xx_hal_dma.c ****     {
 1113              		.loc 1 543 0 discriminator 46
 1114 01d4 1342     		tst	r3, r2
 1115 01d6 14BF     		ite	ne
 1116 01d8 0123     		movne	r3, #1
 1117 01da 0023     		moveq	r3, #0
 1118 01dc 46E0     		b	.L76
 1119              	.L74:
 543:Drivers/STM32F1xx_HAL_Driver/Src/stm32f1xx_hal_dma.c ****     {
 1120              		.loc 1 543 0 discriminator 2
 1121 01de 3E4A     		ldr	r2, .L182+8
 1122 01e0 1268     		ldr	r2, [r2]
 1123 01e2 3B49     		ldr	r1, .L182
 1124 01e4 8B42     		cmp	r3, r1
 1125 01e6 21D0     		beq	.L126
 543:Drivers/STM32F1xx_HAL_Driver/Src/stm32f1xx_hal_dma.c ****     {
 1126              		.loc 1 543 0 discriminator 48
 1127 01e8 1431     		adds	r1, r1, #20
 1128 01ea 8B42     		cmp	r3, r1
 1129 01ec 20D0     		beq	.L127
 543:Drivers/STM32F1xx_HAL_Driver/Src/stm32f1xx_hal_dma.c ****     {
 1130              		.loc 1 543 0 discriminator 50
 1131 01ee 1431     		adds	r1, r1, #20
 1132 01f0 8B42     		cmp	r3, r1
 1133 01f2 1FD0     		beq	.L128
 543:Drivers/STM32F1xx_HAL_Driver/Src/stm32f1xx_hal_dma.c ****     {
 1134              		.loc 1 543 0 discriminator 52
 1135 01f4 1431     		adds	r1, r1, #20
 1136 01f6 8B42     		cmp	r3, r1
 1137 01f8 1FD0     		beq	.L129
 543:Drivers/STM32F1xx_HAL_Driver/Src/stm32f1xx_hal_dma.c ****     {
 1138              		.loc 1 543 0 discriminator 54
 1139 01fa 1431     		adds	r1, r1, #20
 1140 01fc 8B42     		cmp	r3, r1
 1141 01fe 1FD0     		beq	.L130
 543:Drivers/STM32F1xx_HAL_Driver/Src/stm32f1xx_hal_dma.c ****     {
 1142              		.loc 1 543 0 discriminator 56
 1143 0200 1431     		adds	r1, r1, #20
 1144 0202 8B42     		cmp	r3, r1
 1145 0204 1FD0     		beq	.L131
 543:Drivers/STM32F1xx_HAL_Driver/Src/stm32f1xx_hal_dma.c ****     {
 1146              		.loc 1 543 0 discriminator 58
 1147 0206 1431     		adds	r1, r1, #20
 1148 0208 8B42     		cmp	r3, r1
 1149 020a 1FD0     		beq	.L132
 543:Drivers/STM32F1xx_HAL_Driver/Src/stm32f1xx_hal_dma.c ****     {
 1150              		.loc 1 543 0 discriminator 60
 1151 020c 01F56271 		add	r1, r1, #904
 1152 0210 8B42     		cmp	r3, r1
 1153 0212 1ED0     		beq	.L133
 543:Drivers/STM32F1xx_HAL_Driver/Src/stm32f1xx_hal_dma.c ****     {
 1154              		.loc 1 543 0 discriminator 62
 1155 0214 1431     		adds	r1, r1, #20
 1156 0216 8B42     		cmp	r3, r1
 1157 0218 1DD0     		beq	.L134
 543:Drivers/STM32F1xx_HAL_Driver/Src/stm32f1xx_hal_dma.c ****     {
ARM GAS  /tmp/ccfkKAY2.s 			page 40


 1158              		.loc 1 543 0 discriminator 64
 1159 021a 1431     		adds	r1, r1, #20
 1160 021c 8B42     		cmp	r3, r1
 1161 021e 1CD0     		beq	.L135
 543:Drivers/STM32F1xx_HAL_Driver/Src/stm32f1xx_hal_dma.c ****     {
 1162              		.loc 1 543 0 discriminator 66
 1163 0220 1431     		adds	r1, r1, #20
 1164 0222 8B42     		cmp	r3, r1
 1165 0224 1CD1     		bne	.L136
 543:Drivers/STM32F1xx_HAL_Driver/Src/stm32f1xx_hal_dma.c ****     {
 1166              		.loc 1 543 0
 1167 0226 4FF40043 		mov	r3, #32768
 1168 022a 1BE0     		b	.L77
 1169              	.L126:
 1170 022c 0823     		movs	r3, #8
 1171 022e 19E0     		b	.L77
 1172              	.L127:
 1173 0230 8023     		movs	r3, #128
 1174 0232 17E0     		b	.L77
 1175              	.L128:
 1176 0234 4FF40063 		mov	r3, #2048
 1177 0238 14E0     		b	.L77
 1178              	.L129:
 1179 023a 4FF40043 		mov	r3, #32768
 1180 023e 11E0     		b	.L77
 1181              	.L130:
 1182 0240 4FF40023 		mov	r3, #524288
 1183 0244 0EE0     		b	.L77
 1184              	.L131:
 1185 0246 4FF40003 		mov	r3, #8388608
 1186 024a 0BE0     		b	.L77
 1187              	.L132:
 1188 024c 4FF00063 		mov	r3, #134217728
 1189 0250 08E0     		b	.L77
 1190              	.L133:
 1191 0252 0823     		movs	r3, #8
 1192 0254 06E0     		b	.L77
 1193              	.L134:
 1194 0256 8023     		movs	r3, #128
 1195 0258 04E0     		b	.L77
 1196              	.L135:
 1197 025a 4FF40063 		mov	r3, #2048
 1198 025e 01E0     		b	.L77
 1199              	.L136:
 1200 0260 4FF40023 		mov	r3, #524288
 1201              	.L77:
 543:Drivers/STM32F1xx_HAL_Driver/Src/stm32f1xx_hal_dma.c ****     {
 1202              		.loc 1 543 0 discriminator 91
 1203 0264 1342     		tst	r3, r2
 1204 0266 14BF     		ite	ne
 1205 0268 0123     		movne	r3, #1
 1206 026a 0023     		moveq	r3, #0
 1207              	.L76:
 543:Drivers/STM32F1xx_HAL_Driver/Src/stm32f1xx_hal_dma.c ****     {
 1208              		.loc 1 543 0 discriminator 92
 1209 026c 7BB1     		cbz	r3, .L78
 548:Drivers/STM32F1xx_HAL_Driver/Src/stm32f1xx_hal_dma.c **** 
ARM GAS  /tmp/ccfkKAY2.s 			page 41


 1210              		.loc 1 548 0 is_stmt 1
 1211 026e E26B     		ldr	r2, [r4, #60]
 1212 0270 236C     		ldr	r3, [r4, #64]
 1213 0272 0120     		movs	r0, #1
 1214 0274 00FA03F3 		lsl	r3, r0, r3
 1215 0278 5360     		str	r3, [r2, #4]
 551:Drivers/STM32F1xx_HAL_Driver/Src/stm32f1xx_hal_dma.c **** 
 1216              		.loc 1 551 0
 1217 027a A36B     		ldr	r3, [r4, #56]
 1218 027c 0343     		orrs	r3, r3, r0
 1219 027e A363     		str	r3, [r4, #56]
 554:Drivers/STM32F1xx_HAL_Driver/Src/stm32f1xx_hal_dma.c **** 
 1220              		.loc 1 554 0
 1221 0280 84F82100 		strb	r0, [r4, #33]
 557:Drivers/STM32F1xx_HAL_Driver/Src/stm32f1xx_hal_dma.c **** 
 1222              		.loc 1 557 0
 1223 0284 0023     		movs	r3, #0
 1224 0286 84F82030 		strb	r3, [r4, #32]
 559:Drivers/STM32F1xx_HAL_Driver/Src/stm32f1xx_hal_dma.c ****     }
 1225              		.loc 1 559 0
 1226 028a BDE8F081 		pop	{r4, r5, r6, r7, r8, pc}
 1227              	.LVL58:
 1228              	.L78:
 562:Drivers/STM32F1xx_HAL_Driver/Src/stm32f1xx_hal_dma.c ****     {
 1229              		.loc 1 562 0
 1230 028e B5F1FF3F 		cmp	r5, #-1
 1231 0292 12D0     		beq	.L79
 564:Drivers/STM32F1xx_HAL_Driver/Src/stm32f1xx_hal_dma.c ****       {
 1232              		.loc 1 564 0
 1233 0294 2DB1     		cbz	r5, .L80
 564:Drivers/STM32F1xx_HAL_Driver/Src/stm32f1xx_hal_dma.c ****       {
 1234              		.loc 1 564 0 is_stmt 0 discriminator 1
 1235 0296 FFF7FEFF 		bl	HAL_GetTick
 1236              	.LVL59:
 1237 029a C8EB0000 		rsb	r0, r8, r0
 1238 029e 8542     		cmp	r5, r0
 1239 02a0 0BD2     		bcs	.L79
 1240              	.L80:
 567:Drivers/STM32F1xx_HAL_Driver/Src/stm32f1xx_hal_dma.c **** 
 1241              		.loc 1 567 0 is_stmt 1
 1242 02a2 A36B     		ldr	r3, [r4, #56]
 1243 02a4 43F02003 		orr	r3, r3, #32
 1244 02a8 A363     		str	r3, [r4, #56]
 570:Drivers/STM32F1xx_HAL_Driver/Src/stm32f1xx_hal_dma.c **** 
 1245              		.loc 1 570 0
 1246 02aa 0120     		movs	r0, #1
 1247 02ac 84F82100 		strb	r0, [r4, #33]
 573:Drivers/STM32F1xx_HAL_Driver/Src/stm32f1xx_hal_dma.c **** 
 1248              		.loc 1 573 0
 1249 02b0 0023     		movs	r3, #0
 1250 02b2 84F82030 		strb	r3, [r4, #32]
 575:Drivers/STM32F1xx_HAL_Driver/Src/stm32f1xx_hal_dma.c ****       }
 1251              		.loc 1 575 0
 1252 02b6 BDE8F081 		pop	{r4, r5, r6, r7, r8, pc}
 1253              	.LVL60:
 1254              	.L79:
 541:Drivers/STM32F1xx_HAL_Driver/Src/stm32f1xx_hal_dma.c ****   {
ARM GAS  /tmp/ccfkKAY2.s 			page 42


 1255              		.loc 1 541 0
 1256 02ba 2368     		ldr	r3, [r4]
 1257 02bc 0548     		ldr	r0, .L182+4
 1258 02be 8342     		cmp	r3, r0
 1259 02c0 0ED9     		bls	.L81
 541:Drivers/STM32F1xx_HAL_Driver/Src/stm32f1xx_hal_dma.c ****   {
 1260              		.loc 1 541 0 is_stmt 0 discriminator 1
 1261 02c2 064A     		ldr	r2, .L182+12
 1262 02c4 1268     		ldr	r2, [r2]
 1263 02c6 1642     		tst	r6, r2
 1264 02c8 0CBF     		ite	eq
 1265 02ca 0120     		moveq	r0, #1
 1266 02cc 0020     		movne	r0, #0
 1267 02ce 0DE0     		b	.L82
 1268              	.L183:
 1269              		.align	2
 1270              	.L182:
 1271 02d0 08000240 		.word	1073872904
 1272 02d4 80000240 		.word	1073873024
 1273 02d8 00000240 		.word	1073872896
 1274 02dc 00040240 		.word	1073873920
 1275              	.L81:
 541:Drivers/STM32F1xx_HAL_Driver/Src/stm32f1xx_hal_dma.c ****   {
 1276              		.loc 1 541 0 discriminator 2
 1277 02e0 944A     		ldr	r2, .L184
 1278 02e2 1268     		ldr	r2, [r2]
 1279 02e4 1642     		tst	r6, r2
 1280 02e6 0CBF     		ite	eq
 1281 02e8 0120     		moveq	r0, #1
 1282 02ea 0020     		movne	r0, #0
 1283              	.L82:
 541:Drivers/STM32F1xx_HAL_Driver/Src/stm32f1xx_hal_dma.c ****   {
 1284              		.loc 1 541 0 discriminator 4
 1285 02ec 0028     		cmp	r0, #0
 1286 02ee 7FF42AAF 		bne	.L83
 580:Drivers/STM32F1xx_HAL_Driver/Src/stm32f1xx_hal_dma.c ****   {
 1287              		.loc 1 580 0 is_stmt 1
 1288 02f2 002F     		cmp	r7, #0
 1289 02f4 40F08E80 		bne	.L84
 583:Drivers/STM32F1xx_HAL_Driver/Src/stm32f1xx_hal_dma.c **** 
 1290              		.loc 1 583 0
 1291 02f8 8F4A     		ldr	r2, .L184+4
 1292 02fa 9342     		cmp	r3, r2
 1293 02fc 43D9     		bls	.L85
 583:Drivers/STM32F1xx_HAL_Driver/Src/stm32f1xx_hal_dma.c **** 
 1294              		.loc 1 583 0 is_stmt 0 discriminator 1
 1295 02fe 783A     		subs	r2, r2, #120
 1296 0300 9342     		cmp	r3, r2
 1297 0302 21D0     		beq	.L137
 583:Drivers/STM32F1xx_HAL_Driver/Src/stm32f1xx_hal_dma.c **** 
 1298              		.loc 1 583 0 discriminator 3
 1299 0304 1432     		adds	r2, r2, #20
 1300 0306 9342     		cmp	r3, r2
 1301 0308 20D0     		beq	.L138
 583:Drivers/STM32F1xx_HAL_Driver/Src/stm32f1xx_hal_dma.c **** 
 1302              		.loc 1 583 0 discriminator 5
 1303 030a 1432     		adds	r2, r2, #20
ARM GAS  /tmp/ccfkKAY2.s 			page 43


 1304 030c 9342     		cmp	r3, r2
 1305 030e 1FD0     		beq	.L139
 583:Drivers/STM32F1xx_HAL_Driver/Src/stm32f1xx_hal_dma.c **** 
 1306              		.loc 1 583 0 discriminator 7
 1307 0310 1432     		adds	r2, r2, #20
 1308 0312 9342     		cmp	r3, r2
 1309 0314 1FD0     		beq	.L140
 583:Drivers/STM32F1xx_HAL_Driver/Src/stm32f1xx_hal_dma.c **** 
 1310              		.loc 1 583 0 discriminator 9
 1311 0316 1432     		adds	r2, r2, #20
 1312 0318 9342     		cmp	r3, r2
 1313 031a 1FD0     		beq	.L141
 583:Drivers/STM32F1xx_HAL_Driver/Src/stm32f1xx_hal_dma.c **** 
 1314              		.loc 1 583 0 discriminator 11
 1315 031c 1432     		adds	r2, r2, #20
 1316 031e 9342     		cmp	r3, r2
 1317 0320 1FD0     		beq	.L142
 583:Drivers/STM32F1xx_HAL_Driver/Src/stm32f1xx_hal_dma.c **** 
 1318              		.loc 1 583 0 discriminator 13
 1319 0322 1432     		adds	r2, r2, #20
 1320 0324 9342     		cmp	r3, r2
 1321 0326 1FD0     		beq	.L143
 583:Drivers/STM32F1xx_HAL_Driver/Src/stm32f1xx_hal_dma.c **** 
 1322              		.loc 1 583 0 discriminator 15
 1323 0328 02F56272 		add	r2, r2, #904
 1324 032c 9342     		cmp	r3, r2
 1325 032e 1ED0     		beq	.L144
 583:Drivers/STM32F1xx_HAL_Driver/Src/stm32f1xx_hal_dma.c **** 
 1326              		.loc 1 583 0 discriminator 17
 1327 0330 1432     		adds	r2, r2, #20
 1328 0332 9342     		cmp	r3, r2
 1329 0334 1DD0     		beq	.L145
 583:Drivers/STM32F1xx_HAL_Driver/Src/stm32f1xx_hal_dma.c **** 
 1330              		.loc 1 583 0 discriminator 19
 1331 0336 1432     		adds	r2, r2, #20
 1332 0338 9342     		cmp	r3, r2
 1333 033a 1CD0     		beq	.L146
 583:Drivers/STM32F1xx_HAL_Driver/Src/stm32f1xx_hal_dma.c **** 
 1334              		.loc 1 583 0 discriminator 21
 1335 033c 1432     		adds	r2, r2, #20
 1336 033e 9342     		cmp	r3, r2
 1337 0340 1CD1     		bne	.L147
 583:Drivers/STM32F1xx_HAL_Driver/Src/stm32f1xx_hal_dma.c **** 
 1338              		.loc 1 583 0
 1339 0342 4FF40053 		mov	r3, #8192
 1340 0346 1BE0     		b	.L86
 1341              	.L137:
 1342 0348 0223     		movs	r3, #2
 1343 034a 19E0     		b	.L86
 1344              	.L138:
 1345 034c 2023     		movs	r3, #32
 1346 034e 17E0     		b	.L86
 1347              	.L139:
 1348 0350 4FF40073 		mov	r3, #512
 1349 0354 14E0     		b	.L86
 1350              	.L140:
 1351 0356 4FF40053 		mov	r3, #8192
ARM GAS  /tmp/ccfkKAY2.s 			page 44


 1352 035a 11E0     		b	.L86
 1353              	.L141:
 1354 035c 4FF40033 		mov	r3, #131072
 1355 0360 0EE0     		b	.L86
 1356              	.L142:
 1357 0362 4FF40013 		mov	r3, #2097152
 1358 0366 0BE0     		b	.L86
 1359              	.L143:
 1360 0368 4FF00073 		mov	r3, #33554432
 1361 036c 08E0     		b	.L86
 1362              	.L144:
 1363 036e 0223     		movs	r3, #2
 1364 0370 06E0     		b	.L86
 1365              	.L145:
 1366 0372 2023     		movs	r3, #32
 1367 0374 04E0     		b	.L86
 1368              	.L146:
 1369 0376 4FF40073 		mov	r3, #512
 1370 037a 01E0     		b	.L86
 1371              	.L147:
 1372 037c 4FF40033 		mov	r3, #131072
 1373              	.L86:
 583:Drivers/STM32F1xx_HAL_Driver/Src/stm32f1xx_hal_dma.c **** 
 1374              		.loc 1 583 0 discriminator 46
 1375 0380 6E4A     		ldr	r2, .L184+8
 1376 0382 5360     		str	r3, [r2, #4]
 1377 0384 42E0     		b	.L87
 1378              	.L85:
 583:Drivers/STM32F1xx_HAL_Driver/Src/stm32f1xx_hal_dma.c **** 
 1379              		.loc 1 583 0 discriminator 2
 1380 0386 6E4A     		ldr	r2, .L184+12
 1381 0388 9342     		cmp	r3, r2
 1382 038a 21D0     		beq	.L148
 583:Drivers/STM32F1xx_HAL_Driver/Src/stm32f1xx_hal_dma.c **** 
 1383              		.loc 1 583 0 discriminator 47
 1384 038c 1432     		adds	r2, r2, #20
 1385 038e 9342     		cmp	r3, r2
 1386 0390 20D0     		beq	.L149
 583:Drivers/STM32F1xx_HAL_Driver/Src/stm32f1xx_hal_dma.c **** 
 1387              		.loc 1 583 0 discriminator 49
 1388 0392 1432     		adds	r2, r2, #20
 1389 0394 9342     		cmp	r3, r2
 1390 0396 1FD0     		beq	.L150
 583:Drivers/STM32F1xx_HAL_Driver/Src/stm32f1xx_hal_dma.c **** 
 1391              		.loc 1 583 0 discriminator 51
 1392 0398 1432     		adds	r2, r2, #20
 1393 039a 9342     		cmp	r3, r2
 1394 039c 1FD0     		beq	.L151
 583:Drivers/STM32F1xx_HAL_Driver/Src/stm32f1xx_hal_dma.c **** 
 1395              		.loc 1 583 0 discriminator 53
 1396 039e 1432     		adds	r2, r2, #20
 1397 03a0 9342     		cmp	r3, r2
 1398 03a2 1FD0     		beq	.L152
 583:Drivers/STM32F1xx_HAL_Driver/Src/stm32f1xx_hal_dma.c **** 
 1399              		.loc 1 583 0 discriminator 55
 1400 03a4 1432     		adds	r2, r2, #20
 1401 03a6 9342     		cmp	r3, r2
ARM GAS  /tmp/ccfkKAY2.s 			page 45


 1402 03a8 1FD0     		beq	.L153
 583:Drivers/STM32F1xx_HAL_Driver/Src/stm32f1xx_hal_dma.c **** 
 1403              		.loc 1 583 0 discriminator 57
 1404 03aa 1432     		adds	r2, r2, #20
 1405 03ac 9342     		cmp	r3, r2
 1406 03ae 1FD0     		beq	.L154
 583:Drivers/STM32F1xx_HAL_Driver/Src/stm32f1xx_hal_dma.c **** 
 1407              		.loc 1 583 0 discriminator 59
 1408 03b0 02F56272 		add	r2, r2, #904
 1409 03b4 9342     		cmp	r3, r2
 1410 03b6 1ED0     		beq	.L155
 583:Drivers/STM32F1xx_HAL_Driver/Src/stm32f1xx_hal_dma.c **** 
 1411              		.loc 1 583 0 discriminator 61
 1412 03b8 1432     		adds	r2, r2, #20
 1413 03ba 9342     		cmp	r3, r2
 1414 03bc 1DD0     		beq	.L156
 583:Drivers/STM32F1xx_HAL_Driver/Src/stm32f1xx_hal_dma.c **** 
 1415              		.loc 1 583 0 discriminator 63
 1416 03be 1432     		adds	r2, r2, #20
 1417 03c0 9342     		cmp	r3, r2
 1418 03c2 1CD0     		beq	.L157
 583:Drivers/STM32F1xx_HAL_Driver/Src/stm32f1xx_hal_dma.c **** 
 1419              		.loc 1 583 0 discriminator 65
 1420 03c4 1432     		adds	r2, r2, #20
 1421 03c6 9342     		cmp	r3, r2
 1422 03c8 1CD1     		bne	.L158
 583:Drivers/STM32F1xx_HAL_Driver/Src/stm32f1xx_hal_dma.c **** 
 1423              		.loc 1 583 0
 1424 03ca 4FF40053 		mov	r3, #8192
 1425 03ce 1BE0     		b	.L88
 1426              	.L148:
 1427 03d0 0223     		movs	r3, #2
 1428 03d2 19E0     		b	.L88
 1429              	.L149:
 1430 03d4 2023     		movs	r3, #32
 1431 03d6 17E0     		b	.L88
 1432              	.L150:
 1433 03d8 4FF40073 		mov	r3, #512
 1434 03dc 14E0     		b	.L88
 1435              	.L151:
 1436 03de 4FF40053 		mov	r3, #8192
 1437 03e2 11E0     		b	.L88
 1438              	.L152:
 1439 03e4 4FF40033 		mov	r3, #131072
 1440 03e8 0EE0     		b	.L88
 1441              	.L153:
 1442 03ea 4FF40013 		mov	r3, #2097152
 1443 03ee 0BE0     		b	.L88
 1444              	.L154:
 1445 03f0 4FF00073 		mov	r3, #33554432
 1446 03f4 08E0     		b	.L88
 1447              	.L155:
 1448 03f6 0223     		movs	r3, #2
 1449 03f8 06E0     		b	.L88
 1450              	.L156:
 1451 03fa 2023     		movs	r3, #32
 1452 03fc 04E0     		b	.L88
ARM GAS  /tmp/ccfkKAY2.s 			page 46


 1453              	.L157:
 1454 03fe 4FF40073 		mov	r3, #512
 1455 0402 01E0     		b	.L88
 1456              	.L158:
 1457 0404 4FF40033 		mov	r3, #131072
 1458              	.L88:
 583:Drivers/STM32F1xx_HAL_Driver/Src/stm32f1xx_hal_dma.c **** 
 1459              		.loc 1 583 0 discriminator 90
 1460 0408 4A4A     		ldr	r2, .L184
 1461 040a 5360     		str	r3, [r2, #4]
 1462              	.L87:
 587:Drivers/STM32F1xx_HAL_Driver/Src/stm32f1xx_hal_dma.c ****   }
 1463              		.loc 1 587 0 is_stmt 1
 1464 040c 0123     		movs	r3, #1
 1465 040e 84F82130 		strb	r3, [r4, #33]
 1466 0412 89E0     		b	.L89
 1467              	.L84:
 592:Drivers/STM32F1xx_HAL_Driver/Src/stm32f1xx_hal_dma.c ****   }
 1468              		.loc 1 592 0
 1469 0414 484A     		ldr	r2, .L184+4
 1470 0416 9342     		cmp	r3, r2
 1471 0418 43D9     		bls	.L90
 592:Drivers/STM32F1xx_HAL_Driver/Src/stm32f1xx_hal_dma.c ****   }
 1472              		.loc 1 592 0 is_stmt 0 discriminator 1
 1473 041a 783A     		subs	r2, r2, #120
 1474 041c 9342     		cmp	r3, r2
 1475 041e 21D0     		beq	.L159
 592:Drivers/STM32F1xx_HAL_Driver/Src/stm32f1xx_hal_dma.c ****   }
 1476              		.loc 1 592 0 discriminator 3
 1477 0420 1432     		adds	r2, r2, #20
 1478 0422 9342     		cmp	r3, r2
 1479 0424 20D0     		beq	.L160
 592:Drivers/STM32F1xx_HAL_Driver/Src/stm32f1xx_hal_dma.c ****   }
 1480              		.loc 1 592 0 discriminator 5
 1481 0426 1432     		adds	r2, r2, #20
 1482 0428 9342     		cmp	r3, r2
 1483 042a 1FD0     		beq	.L161
 592:Drivers/STM32F1xx_HAL_Driver/Src/stm32f1xx_hal_dma.c ****   }
 1484              		.loc 1 592 0 discriminator 7
 1485 042c 1432     		adds	r2, r2, #20
 1486 042e 9342     		cmp	r3, r2
 1487 0430 1FD0     		beq	.L162
 592:Drivers/STM32F1xx_HAL_Driver/Src/stm32f1xx_hal_dma.c ****   }
 1488              		.loc 1 592 0 discriminator 9
 1489 0432 1432     		adds	r2, r2, #20
 1490 0434 9342     		cmp	r3, r2
 1491 0436 1FD0     		beq	.L163
 592:Drivers/STM32F1xx_HAL_Driver/Src/stm32f1xx_hal_dma.c ****   }
 1492              		.loc 1 592 0 discriminator 11
 1493 0438 1432     		adds	r2, r2, #20
 1494 043a 9342     		cmp	r3, r2
 1495 043c 1FD0     		beq	.L164
 592:Drivers/STM32F1xx_HAL_Driver/Src/stm32f1xx_hal_dma.c ****   }
 1496              		.loc 1 592 0 discriminator 13
 1497 043e 1432     		adds	r2, r2, #20
 1498 0440 9342     		cmp	r3, r2
 1499 0442 1FD0     		beq	.L165
ARM GAS  /tmp/ccfkKAY2.s 			page 47


 592:Drivers/STM32F1xx_HAL_Driver/Src/stm32f1xx_hal_dma.c ****   }
 1500              		.loc 1 592 0 discriminator 15
 1501 0444 02F56272 		add	r2, r2, #904
 1502 0448 9342     		cmp	r3, r2
 1503 044a 1ED0     		beq	.L166
 592:Drivers/STM32F1xx_HAL_Driver/Src/stm32f1xx_hal_dma.c ****   }
 1504              		.loc 1 592 0 discriminator 17
 1505 044c 1432     		adds	r2, r2, #20
 1506 044e 9342     		cmp	r3, r2
 1507 0450 1DD0     		beq	.L167
 592:Drivers/STM32F1xx_HAL_Driver/Src/stm32f1xx_hal_dma.c ****   }
 1508              		.loc 1 592 0 discriminator 19
 1509 0452 1432     		adds	r2, r2, #20
 1510 0454 9342     		cmp	r3, r2
 1511 0456 1CD0     		beq	.L168
 592:Drivers/STM32F1xx_HAL_Driver/Src/stm32f1xx_hal_dma.c ****   }
 1512              		.loc 1 592 0 discriminator 21
 1513 0458 1432     		adds	r2, r2, #20
 1514 045a 9342     		cmp	r3, r2
 1515 045c 1CD1     		bne	.L169
 592:Drivers/STM32F1xx_HAL_Driver/Src/stm32f1xx_hal_dma.c ****   }
 1516              		.loc 1 592 0
 1517 045e 4FF48043 		mov	r3, #16384
 1518 0462 1BE0     		b	.L91
 1519              	.L159:
 1520 0464 0423     		movs	r3, #4
 1521 0466 19E0     		b	.L91
 1522              	.L160:
 1523 0468 4023     		movs	r3, #64
 1524 046a 17E0     		b	.L91
 1525              	.L161:
 1526 046c 4FF48063 		mov	r3, #1024
 1527 0470 14E0     		b	.L91
 1528              	.L162:
 1529 0472 4FF48043 		mov	r3, #16384
 1530 0476 11E0     		b	.L91
 1531              	.L163:
 1532 0478 4FF48023 		mov	r3, #262144
 1533 047c 0EE0     		b	.L91
 1534              	.L164:
 1535 047e 4FF48003 		mov	r3, #4194304
 1536 0482 0BE0     		b	.L91
 1537              	.L165:
 1538 0484 4FF08063 		mov	r3, #67108864
 1539 0488 08E0     		b	.L91
 1540              	.L166:
 1541 048a 0423     		movs	r3, #4
 1542 048c 06E0     		b	.L91
 1543              	.L167:
 1544 048e 4023     		movs	r3, #64
 1545 0490 04E0     		b	.L91
 1546              	.L168:
 1547 0492 4FF48063 		mov	r3, #1024
 1548 0496 01E0     		b	.L91
 1549              	.L169:
 1550 0498 4FF48023 		mov	r3, #262144
 1551              	.L91:
ARM GAS  /tmp/ccfkKAY2.s 			page 48


 592:Drivers/STM32F1xx_HAL_Driver/Src/stm32f1xx_hal_dma.c ****   }
 1552              		.loc 1 592 0 discriminator 46
 1553 049c 274A     		ldr	r2, .L184+8
 1554 049e 5360     		str	r3, [r2, #4]
 1555 04a0 42E0     		b	.L89
 1556              	.L90:
 592:Drivers/STM32F1xx_HAL_Driver/Src/stm32f1xx_hal_dma.c ****   }
 1557              		.loc 1 592 0 discriminator 2
 1558 04a2 274A     		ldr	r2, .L184+12
 1559 04a4 9342     		cmp	r3, r2
 1560 04a6 21D0     		beq	.L170
 592:Drivers/STM32F1xx_HAL_Driver/Src/stm32f1xx_hal_dma.c ****   }
 1561              		.loc 1 592 0 discriminator 47
 1562 04a8 1432     		adds	r2, r2, #20
 1563 04aa 9342     		cmp	r3, r2
 1564 04ac 20D0     		beq	.L171
 592:Drivers/STM32F1xx_HAL_Driver/Src/stm32f1xx_hal_dma.c ****   }
 1565              		.loc 1 592 0 discriminator 49
 1566 04ae 1432     		adds	r2, r2, #20
 1567 04b0 9342     		cmp	r3, r2
 1568 04b2 1FD0     		beq	.L172
 592:Drivers/STM32F1xx_HAL_Driver/Src/stm32f1xx_hal_dma.c ****   }
 1569              		.loc 1 592 0 discriminator 51
 1570 04b4 1432     		adds	r2, r2, #20
 1571 04b6 9342     		cmp	r3, r2
 1572 04b8 1FD0     		beq	.L173
 592:Drivers/STM32F1xx_HAL_Driver/Src/stm32f1xx_hal_dma.c ****   }
 1573              		.loc 1 592 0 discriminator 53
 1574 04ba 1432     		adds	r2, r2, #20
 1575 04bc 9342     		cmp	r3, r2
 1576 04be 1FD0     		beq	.L174
 592:Drivers/STM32F1xx_HAL_Driver/Src/stm32f1xx_hal_dma.c ****   }
 1577              		.loc 1 592 0 discriminator 55
 1578 04c0 1432     		adds	r2, r2, #20
 1579 04c2 9342     		cmp	r3, r2
 1580 04c4 1FD0     		beq	.L175
 592:Drivers/STM32F1xx_HAL_Driver/Src/stm32f1xx_hal_dma.c ****   }
 1581              		.loc 1 592 0 discriminator 57
 1582 04c6 1432     		adds	r2, r2, #20
 1583 04c8 9342     		cmp	r3, r2
 1584 04ca 1FD0     		beq	.L176
 592:Drivers/STM32F1xx_HAL_Driver/Src/stm32f1xx_hal_dma.c ****   }
 1585              		.loc 1 592 0 discriminator 59
 1586 04cc 02F56272 		add	r2, r2, #904
 1587 04d0 9342     		cmp	r3, r2
 1588 04d2 1ED0     		beq	.L177
 592:Drivers/STM32F1xx_HAL_Driver/Src/stm32f1xx_hal_dma.c ****   }
 1589              		.loc 1 592 0 discriminator 61
 1590 04d4 1432     		adds	r2, r2, #20
 1591 04d6 9342     		cmp	r3, r2
 1592 04d8 1DD0     		beq	.L178
 592:Drivers/STM32F1xx_HAL_Driver/Src/stm32f1xx_hal_dma.c ****   }
 1593              		.loc 1 592 0 discriminator 63
 1594 04da 1432     		adds	r2, r2, #20
 1595 04dc 9342     		cmp	r3, r2
 1596 04de 1CD0     		beq	.L179
 592:Drivers/STM32F1xx_HAL_Driver/Src/stm32f1xx_hal_dma.c ****   }
ARM GAS  /tmp/ccfkKAY2.s 			page 49


 1597              		.loc 1 592 0 discriminator 65
 1598 04e0 1432     		adds	r2, r2, #20
 1599 04e2 9342     		cmp	r3, r2
 1600 04e4 1CD1     		bne	.L180
 592:Drivers/STM32F1xx_HAL_Driver/Src/stm32f1xx_hal_dma.c ****   }
 1601              		.loc 1 592 0
 1602 04e6 4FF48043 		mov	r3, #16384
 1603 04ea 1BE0     		b	.L92
 1604              	.L170:
 1605 04ec 0423     		movs	r3, #4
 1606 04ee 19E0     		b	.L92
 1607              	.L171:
 1608 04f0 4023     		movs	r3, #64
 1609 04f2 17E0     		b	.L92
 1610              	.L172:
 1611 04f4 4FF48063 		mov	r3, #1024
 1612 04f8 14E0     		b	.L92
 1613              	.L173:
 1614 04fa 4FF48043 		mov	r3, #16384
 1615 04fe 11E0     		b	.L92
 1616              	.L174:
 1617 0500 4FF48023 		mov	r3, #262144
 1618 0504 0EE0     		b	.L92
 1619              	.L175:
 1620 0506 4FF48003 		mov	r3, #4194304
 1621 050a 0BE0     		b	.L92
 1622              	.L176:
 1623 050c 4FF08063 		mov	r3, #67108864
 1624 0510 08E0     		b	.L92
 1625              	.L177:
 1626 0512 0423     		movs	r3, #4
 1627 0514 06E0     		b	.L92
 1628              	.L178:
 1629 0516 4023     		movs	r3, #64
 1630 0518 04E0     		b	.L92
 1631              	.L179:
 1632 051a 4FF48063 		mov	r3, #1024
 1633 051e 01E0     		b	.L92
 1634              	.L180:
 1635 0520 4FF48023 		mov	r3, #262144
 1636              	.L92:
 592:Drivers/STM32F1xx_HAL_Driver/Src/stm32f1xx_hal_dma.c ****   }
 1637              		.loc 1 592 0 discriminator 90
 1638 0524 034A     		ldr	r2, .L184
 1639 0526 5360     		str	r3, [r2, #4]
 1640              	.L89:
 596:Drivers/STM32F1xx_HAL_Driver/Src/stm32f1xx_hal_dma.c **** 
 1641              		.loc 1 596 0 is_stmt 1
 1642 0528 0020     		movs	r0, #0
 1643 052a 84F82000 		strb	r0, [r4, #32]
 599:Drivers/STM32F1xx_HAL_Driver/Src/stm32f1xx_hal_dma.c **** 
 1644              		.loc 1 599 0
 1645 052e BDE8F081 		pop	{r4, r5, r6, r7, r8, pc}
 1646              	.LVL61:
 1647              	.L185:
 1648 0532 00BF     		.align	2
 1649              	.L184:
ARM GAS  /tmp/ccfkKAY2.s 			page 50


 1650 0534 00000240 		.word	1073872896
 1651 0538 80000240 		.word	1073873024
 1652 053c 00040240 		.word	1073873920
 1653 0540 08000240 		.word	1073872904
 1654              		.cfi_endproc
 1655              	.LFE70:
 1657              		.section	.text.HAL_DMA_IRQHandler,"ax",%progbits
 1658              		.align	2
 1659              		.global	HAL_DMA_IRQHandler
 1660              		.thumb
 1661              		.thumb_func
 1663              	HAL_DMA_IRQHandler:
 1664              	.LFB71:
 608:Drivers/STM32F1xx_HAL_Driver/Src/stm32f1xx_hal_dma.c ****   uint32_t flag_it = hdma->DmaBaseAddress->ISR;
 1665              		.loc 1 608 0
 1666              		.cfi_startproc
 1667              		@ args = 0, pretend = 0, frame = 0
 1668              		@ frame_needed = 0, uses_anonymous_args = 0
 1669              	.LVL62:
 1670 0000 38B5     		push	{r3, r4, r5, lr}
 1671              	.LCFI10:
 1672              		.cfi_def_cfa_offset 16
 1673              		.cfi_offset 3, -16
 1674              		.cfi_offset 4, -12
 1675              		.cfi_offset 5, -8
 1676              		.cfi_offset 14, -4
 609:Drivers/STM32F1xx_HAL_Driver/Src/stm32f1xx_hal_dma.c ****   uint32_t source_it = hdma->Instance->CCR;
 1677              		.loc 1 609 0
 1678 0002 C36B     		ldr	r3, [r0, #60]
 1679 0004 1A68     		ldr	r2, [r3]
 1680              	.LVL63:
 610:Drivers/STM32F1xx_HAL_Driver/Src/stm32f1xx_hal_dma.c ****   
 1681              		.loc 1 610 0
 1682 0006 0468     		ldr	r4, [r0]
 1683 0008 2568     		ldr	r5, [r4]
 1684              	.LVL64:
 613:Drivers/STM32F1xx_HAL_Driver/Src/stm32f1xx_hal_dma.c ****   {
 1685              		.loc 1 613 0
 1686 000a 016C     		ldr	r1, [r0, #64]
 1687 000c 0423     		movs	r3, #4
 1688 000e 8B40     		lsls	r3, r3, r1
 1689 0010 1A42     		tst	r2, r3
 1690 0012 00F09D80 		beq	.L187
 613:Drivers/STM32F1xx_HAL_Driver/Src/stm32f1xx_hal_dma.c ****   {
 1691              		.loc 1 613 0 is_stmt 0 discriminator 1
 1692 0016 15F0040F 		tst	r5, #4
 1693 001a 00F09980 		beq	.L187
 616:Drivers/STM32F1xx_HAL_Driver/Src/stm32f1xx_hal_dma.c ****     {
 1694              		.loc 1 616 0 is_stmt 1
 1695 001e 2368     		ldr	r3, [r4]
 1696 0020 13F0200F 		tst	r3, #32
 1697 0024 03D1     		bne	.L188
 619:Drivers/STM32F1xx_HAL_Driver/Src/stm32f1xx_hal_dma.c ****     }
 1698              		.loc 1 619 0
 1699 0026 2368     		ldr	r3, [r4]
 1700 0028 23F00403 		bic	r3, r3, #4
 1701 002c 2360     		str	r3, [r4]
ARM GAS  /tmp/ccfkKAY2.s 			page 51


 1702              	.L188:
 622:Drivers/STM32F1xx_HAL_Driver/Src/stm32f1xx_hal_dma.c **** 
 1703              		.loc 1 622 0
 1704 002e 0368     		ldr	r3, [r0]
 1705 0030 A84A     		ldr	r2, .L245
 1706              	.LVL65:
 1707 0032 9342     		cmp	r3, r2
 1708 0034 43D9     		bls	.L189
 622:Drivers/STM32F1xx_HAL_Driver/Src/stm32f1xx_hal_dma.c **** 
 1709              		.loc 1 622 0 is_stmt 0 discriminator 1
 1710 0036 783A     		subs	r2, r2, #120
 1711 0038 9342     		cmp	r3, r2
 1712 003a 21D0     		beq	.L200
 622:Drivers/STM32F1xx_HAL_Driver/Src/stm32f1xx_hal_dma.c **** 
 1713              		.loc 1 622 0 discriminator 3
 1714 003c 1432     		adds	r2, r2, #20
 1715 003e 9342     		cmp	r3, r2
 1716 0040 20D0     		beq	.L201
 622:Drivers/STM32F1xx_HAL_Driver/Src/stm32f1xx_hal_dma.c **** 
 1717              		.loc 1 622 0 discriminator 5
 1718 0042 1432     		adds	r2, r2, #20
 1719 0044 9342     		cmp	r3, r2
 1720 0046 1FD0     		beq	.L202
 622:Drivers/STM32F1xx_HAL_Driver/Src/stm32f1xx_hal_dma.c **** 
 1721              		.loc 1 622 0 discriminator 7
 1722 0048 1432     		adds	r2, r2, #20
 1723 004a 9342     		cmp	r3, r2
 1724 004c 1FD0     		beq	.L203
 622:Drivers/STM32F1xx_HAL_Driver/Src/stm32f1xx_hal_dma.c **** 
 1725              		.loc 1 622 0 discriminator 9
 1726 004e 1432     		adds	r2, r2, #20
 1727 0050 9342     		cmp	r3, r2
 1728 0052 1FD0     		beq	.L204
 622:Drivers/STM32F1xx_HAL_Driver/Src/stm32f1xx_hal_dma.c **** 
 1729              		.loc 1 622 0 discriminator 11
 1730 0054 1432     		adds	r2, r2, #20
 1731 0056 9342     		cmp	r3, r2
 1732 0058 1FD0     		beq	.L205
 622:Drivers/STM32F1xx_HAL_Driver/Src/stm32f1xx_hal_dma.c **** 
 1733              		.loc 1 622 0 discriminator 13
 1734 005a 1432     		adds	r2, r2, #20
 1735 005c 9342     		cmp	r3, r2
 1736 005e 1FD0     		beq	.L206
 622:Drivers/STM32F1xx_HAL_Driver/Src/stm32f1xx_hal_dma.c **** 
 1737              		.loc 1 622 0 discriminator 15
 1738 0060 02F56272 		add	r2, r2, #904
 1739 0064 9342     		cmp	r3, r2
 1740 0066 1ED0     		beq	.L207
 622:Drivers/STM32F1xx_HAL_Driver/Src/stm32f1xx_hal_dma.c **** 
 1741              		.loc 1 622 0 discriminator 17
 1742 0068 1432     		adds	r2, r2, #20
 1743 006a 9342     		cmp	r3, r2
 1744 006c 1DD0     		beq	.L208
 622:Drivers/STM32F1xx_HAL_Driver/Src/stm32f1xx_hal_dma.c **** 
 1745              		.loc 1 622 0 discriminator 19
 1746 006e 1432     		adds	r2, r2, #20
 1747 0070 9342     		cmp	r3, r2
ARM GAS  /tmp/ccfkKAY2.s 			page 52


 1748 0072 1CD0     		beq	.L209
 622:Drivers/STM32F1xx_HAL_Driver/Src/stm32f1xx_hal_dma.c **** 
 1749              		.loc 1 622 0 discriminator 21
 1750 0074 1432     		adds	r2, r2, #20
 1751 0076 9342     		cmp	r3, r2
 1752 0078 1CD1     		bne	.L210
 622:Drivers/STM32F1xx_HAL_Driver/Src/stm32f1xx_hal_dma.c **** 
 1753              		.loc 1 622 0
 1754 007a 4FF48042 		mov	r2, #16384
 1755 007e 1BE0     		b	.L190
 1756              	.L200:
 1757 0080 0422     		movs	r2, #4
 1758 0082 19E0     		b	.L190
 1759              	.L201:
 1760 0084 4022     		movs	r2, #64
 1761 0086 17E0     		b	.L190
 1762              	.L202:
 1763 0088 4FF48062 		mov	r2, #1024
 1764 008c 14E0     		b	.L190
 1765              	.L203:
 1766 008e 4FF48042 		mov	r2, #16384
 1767 0092 11E0     		b	.L190
 1768              	.L204:
 1769 0094 4FF48022 		mov	r2, #262144
 1770 0098 0EE0     		b	.L190
 1771              	.L205:
 1772 009a 4FF48002 		mov	r2, #4194304
 1773 009e 0BE0     		b	.L190
 1774              	.L206:
 1775 00a0 4FF08062 		mov	r2, #67108864
 1776 00a4 08E0     		b	.L190
 1777              	.L207:
 1778 00a6 0422     		movs	r2, #4
 1779 00a8 06E0     		b	.L190
 1780              	.L208:
 1781 00aa 4022     		movs	r2, #64
 1782 00ac 04E0     		b	.L190
 1783              	.L209:
 1784 00ae 4FF48062 		mov	r2, #1024
 1785 00b2 01E0     		b	.L190
 1786              	.L210:
 1787 00b4 4FF48022 		mov	r2, #262144
 1788              	.L190:
 622:Drivers/STM32F1xx_HAL_Driver/Src/stm32f1xx_hal_dma.c **** 
 1789              		.loc 1 622 0 discriminator 46
 1790 00b8 874B     		ldr	r3, .L245+4
 1791 00ba 5A60     		str	r2, [r3, #4]
 1792 00bc 42E0     		b	.L191
 1793              	.L189:
 622:Drivers/STM32F1xx_HAL_Driver/Src/stm32f1xx_hal_dma.c **** 
 1794              		.loc 1 622 0 discriminator 2
 1795 00be 874A     		ldr	r2, .L245+8
 1796 00c0 9342     		cmp	r3, r2
 1797 00c2 21D0     		beq	.L211
 622:Drivers/STM32F1xx_HAL_Driver/Src/stm32f1xx_hal_dma.c **** 
 1798              		.loc 1 622 0 discriminator 47
 1799 00c4 1432     		adds	r2, r2, #20
ARM GAS  /tmp/ccfkKAY2.s 			page 53


 1800 00c6 9342     		cmp	r3, r2
 1801 00c8 20D0     		beq	.L212
 622:Drivers/STM32F1xx_HAL_Driver/Src/stm32f1xx_hal_dma.c **** 
 1802              		.loc 1 622 0 discriminator 49
 1803 00ca 1432     		adds	r2, r2, #20
 1804 00cc 9342     		cmp	r3, r2
 1805 00ce 1FD0     		beq	.L213
 622:Drivers/STM32F1xx_HAL_Driver/Src/stm32f1xx_hal_dma.c **** 
 1806              		.loc 1 622 0 discriminator 51
 1807 00d0 1432     		adds	r2, r2, #20
 1808 00d2 9342     		cmp	r3, r2
 1809 00d4 1FD0     		beq	.L214
 622:Drivers/STM32F1xx_HAL_Driver/Src/stm32f1xx_hal_dma.c **** 
 1810              		.loc 1 622 0 discriminator 53
 1811 00d6 1432     		adds	r2, r2, #20
 1812 00d8 9342     		cmp	r3, r2
 1813 00da 1FD0     		beq	.L215
 622:Drivers/STM32F1xx_HAL_Driver/Src/stm32f1xx_hal_dma.c **** 
 1814              		.loc 1 622 0 discriminator 55
 1815 00dc 1432     		adds	r2, r2, #20
 1816 00de 9342     		cmp	r3, r2
 1817 00e0 1FD0     		beq	.L216
 622:Drivers/STM32F1xx_HAL_Driver/Src/stm32f1xx_hal_dma.c **** 
 1818              		.loc 1 622 0 discriminator 57
 1819 00e2 1432     		adds	r2, r2, #20
 1820 00e4 9342     		cmp	r3, r2
 1821 00e6 1FD0     		beq	.L217
 622:Drivers/STM32F1xx_HAL_Driver/Src/stm32f1xx_hal_dma.c **** 
 1822              		.loc 1 622 0 discriminator 59
 1823 00e8 02F56272 		add	r2, r2, #904
 1824 00ec 9342     		cmp	r3, r2
 1825 00ee 1ED0     		beq	.L218
 622:Drivers/STM32F1xx_HAL_Driver/Src/stm32f1xx_hal_dma.c **** 
 1826              		.loc 1 622 0 discriminator 61
 1827 00f0 1432     		adds	r2, r2, #20
 1828 00f2 9342     		cmp	r3, r2
 1829 00f4 1DD0     		beq	.L219
 622:Drivers/STM32F1xx_HAL_Driver/Src/stm32f1xx_hal_dma.c **** 
 1830              		.loc 1 622 0 discriminator 63
 1831 00f6 1432     		adds	r2, r2, #20
 1832 00f8 9342     		cmp	r3, r2
 1833 00fa 1CD0     		beq	.L220
 622:Drivers/STM32F1xx_HAL_Driver/Src/stm32f1xx_hal_dma.c **** 
 1834              		.loc 1 622 0 discriminator 65
 1835 00fc 1432     		adds	r2, r2, #20
 1836 00fe 9342     		cmp	r3, r2
 1837 0100 1CD1     		bne	.L221
 622:Drivers/STM32F1xx_HAL_Driver/Src/stm32f1xx_hal_dma.c **** 
 1838              		.loc 1 622 0
 1839 0102 4FF48042 		mov	r2, #16384
 1840 0106 1BE0     		b	.L192
 1841              	.L211:
 1842 0108 0422     		movs	r2, #4
 1843 010a 19E0     		b	.L192
 1844              	.L212:
 1845 010c 4022     		movs	r2, #64
 1846 010e 17E0     		b	.L192
ARM GAS  /tmp/ccfkKAY2.s 			page 54


 1847              	.L213:
 1848 0110 4FF48062 		mov	r2, #1024
 1849 0114 14E0     		b	.L192
 1850              	.L214:
 1851 0116 4FF48042 		mov	r2, #16384
 1852 011a 11E0     		b	.L192
 1853              	.L215:
 1854 011c 4FF48022 		mov	r2, #262144
 1855 0120 0EE0     		b	.L192
 1856              	.L216:
 1857 0122 4FF48002 		mov	r2, #4194304
 1858 0126 0BE0     		b	.L192
 1859              	.L217:
 1860 0128 4FF08062 		mov	r2, #67108864
 1861 012c 08E0     		b	.L192
 1862              	.L218:
 1863 012e 0422     		movs	r2, #4
 1864 0130 06E0     		b	.L192
 1865              	.L219:
 1866 0132 4022     		movs	r2, #64
 1867 0134 04E0     		b	.L192
 1868              	.L220:
 1869 0136 4FF48062 		mov	r2, #1024
 1870 013a 01E0     		b	.L192
 1871              	.L221:
 1872 013c 4FF48022 		mov	r2, #262144
 1873              	.L192:
 622:Drivers/STM32F1xx_HAL_Driver/Src/stm32f1xx_hal_dma.c **** 
 1874              		.loc 1 622 0 discriminator 90
 1875 0140 674B     		ldr	r3, .L245+12
 1876 0142 5A60     		str	r2, [r3, #4]
 1877              	.L191:
 627:Drivers/STM32F1xx_HAL_Driver/Src/stm32f1xx_hal_dma.c ****     {
 1878              		.loc 1 627 0 is_stmt 1
 1879 0144 C36A     		ldr	r3, [r0, #44]
 1880 0146 002B     		cmp	r3, #0
 1881 0148 00F0C380 		beq	.L186
 630:Drivers/STM32F1xx_HAL_Driver/Src/stm32f1xx_hal_dma.c ****     }
 1882              		.loc 1 630 0
 1883 014c 9847     		blx	r3
 1884              	.LVL66:
 1885 014e 38BD     		pop	{r3, r4, r5, pc}
 1886              	.LVL67:
 1887              	.L187:
 635:Drivers/STM32F1xx_HAL_Driver/Src/stm32f1xx_hal_dma.c ****   {
 1888              		.loc 1 635 0
 1889 0150 0223     		movs	r3, #2
 1890 0152 8B40     		lsls	r3, r3, r1
 1891 0154 1A42     		tst	r2, r3
 1892 0156 00F0A180 		beq	.L194
 635:Drivers/STM32F1xx_HAL_Driver/Src/stm32f1xx_hal_dma.c ****   {
 1893              		.loc 1 635 0 is_stmt 0 discriminator 1
 1894 015a 15F0020F 		tst	r5, #2
 1895 015e 00F09D80 		beq	.L194
 637:Drivers/STM32F1xx_HAL_Driver/Src/stm32f1xx_hal_dma.c ****     {
 1896              		.loc 1 637 0 is_stmt 1
 1897 0162 2368     		ldr	r3, [r4]
ARM GAS  /tmp/ccfkKAY2.s 			page 55


 1898 0164 13F0200F 		tst	r3, #32
 1899 0168 06D1     		bne	.L195
 640:Drivers/STM32F1xx_HAL_Driver/Src/stm32f1xx_hal_dma.c **** 
 1900              		.loc 1 640 0
 1901 016a 2368     		ldr	r3, [r4]
 1902 016c 23F00A03 		bic	r3, r3, #10
 1903 0170 2360     		str	r3, [r4]
 643:Drivers/STM32F1xx_HAL_Driver/Src/stm32f1xx_hal_dma.c ****     }
 1904              		.loc 1 643 0
 1905 0172 0123     		movs	r3, #1
 1906 0174 80F82130 		strb	r3, [r0, #33]
 1907              	.L195:
 646:Drivers/STM32F1xx_HAL_Driver/Src/stm32f1xx_hal_dma.c **** 
 1908              		.loc 1 646 0
 1909 0178 0368     		ldr	r3, [r0]
 1910 017a 564A     		ldr	r2, .L245
 1911              	.LVL68:
 1912 017c 9342     		cmp	r3, r2
 1913 017e 43D9     		bls	.L196
 646:Drivers/STM32F1xx_HAL_Driver/Src/stm32f1xx_hal_dma.c **** 
 1914              		.loc 1 646 0 is_stmt 0 discriminator 1
 1915 0180 783A     		subs	r2, r2, #120
 1916 0182 9342     		cmp	r3, r2
 1917 0184 21D0     		beq	.L222
 646:Drivers/STM32F1xx_HAL_Driver/Src/stm32f1xx_hal_dma.c **** 
 1918              		.loc 1 646 0 discriminator 3
 1919 0186 1432     		adds	r2, r2, #20
 1920 0188 9342     		cmp	r3, r2
 1921 018a 20D0     		beq	.L223
 646:Drivers/STM32F1xx_HAL_Driver/Src/stm32f1xx_hal_dma.c **** 
 1922              		.loc 1 646 0 discriminator 5
 1923 018c 1432     		adds	r2, r2, #20
 1924 018e 9342     		cmp	r3, r2
 1925 0190 1FD0     		beq	.L224
 646:Drivers/STM32F1xx_HAL_Driver/Src/stm32f1xx_hal_dma.c **** 
 1926              		.loc 1 646 0 discriminator 7
 1927 0192 1432     		adds	r2, r2, #20
 1928 0194 9342     		cmp	r3, r2
 1929 0196 1FD0     		beq	.L225
 646:Drivers/STM32F1xx_HAL_Driver/Src/stm32f1xx_hal_dma.c **** 
 1930              		.loc 1 646 0 discriminator 9
 1931 0198 1432     		adds	r2, r2, #20
 1932 019a 9342     		cmp	r3, r2
 1933 019c 1FD0     		beq	.L226
 646:Drivers/STM32F1xx_HAL_Driver/Src/stm32f1xx_hal_dma.c **** 
 1934              		.loc 1 646 0 discriminator 11
 1935 019e 1432     		adds	r2, r2, #20
 1936 01a0 9342     		cmp	r3, r2
 1937 01a2 1FD0     		beq	.L227
 646:Drivers/STM32F1xx_HAL_Driver/Src/stm32f1xx_hal_dma.c **** 
 1938              		.loc 1 646 0 discriminator 13
 1939 01a4 1432     		adds	r2, r2, #20
 1940 01a6 9342     		cmp	r3, r2
 1941 01a8 1FD0     		beq	.L228
 646:Drivers/STM32F1xx_HAL_Driver/Src/stm32f1xx_hal_dma.c **** 
 1942              		.loc 1 646 0 discriminator 15
 1943 01aa 02F56272 		add	r2, r2, #904
ARM GAS  /tmp/ccfkKAY2.s 			page 56


 1944 01ae 9342     		cmp	r3, r2
 1945 01b0 1ED0     		beq	.L229
 646:Drivers/STM32F1xx_HAL_Driver/Src/stm32f1xx_hal_dma.c **** 
 1946              		.loc 1 646 0 discriminator 17
 1947 01b2 1432     		adds	r2, r2, #20
 1948 01b4 9342     		cmp	r3, r2
 1949 01b6 1DD0     		beq	.L230
 646:Drivers/STM32F1xx_HAL_Driver/Src/stm32f1xx_hal_dma.c **** 
 1950              		.loc 1 646 0 discriminator 19
 1951 01b8 1432     		adds	r2, r2, #20
 1952 01ba 9342     		cmp	r3, r2
 1953 01bc 1CD0     		beq	.L231
 646:Drivers/STM32F1xx_HAL_Driver/Src/stm32f1xx_hal_dma.c **** 
 1954              		.loc 1 646 0 discriminator 21
 1955 01be 1432     		adds	r2, r2, #20
 1956 01c0 9342     		cmp	r3, r2
 1957 01c2 1CD1     		bne	.L232
 646:Drivers/STM32F1xx_HAL_Driver/Src/stm32f1xx_hal_dma.c **** 
 1958              		.loc 1 646 0
 1959 01c4 4FF40052 		mov	r2, #8192
 1960 01c8 1BE0     		b	.L197
 1961              	.L222:
 1962 01ca 0222     		movs	r2, #2
 1963 01cc 19E0     		b	.L197
 1964              	.L223:
 1965 01ce 2022     		movs	r2, #32
 1966 01d0 17E0     		b	.L197
 1967              	.L224:
 1968 01d2 4FF40072 		mov	r2, #512
 1969 01d6 14E0     		b	.L197
 1970              	.L225:
 1971 01d8 4FF40052 		mov	r2, #8192
 1972 01dc 11E0     		b	.L197
 1973              	.L226:
 1974 01de 4FF40032 		mov	r2, #131072
 1975 01e2 0EE0     		b	.L197
 1976              	.L227:
 1977 01e4 4FF40012 		mov	r2, #2097152
 1978 01e8 0BE0     		b	.L197
 1979              	.L228:
 1980 01ea 4FF00072 		mov	r2, #33554432
 1981 01ee 08E0     		b	.L197
 1982              	.L229:
 1983 01f0 0222     		movs	r2, #2
 1984 01f2 06E0     		b	.L197
 1985              	.L230:
 1986 01f4 2022     		movs	r2, #32
 1987 01f6 04E0     		b	.L197
 1988              	.L231:
 1989 01f8 4FF40072 		mov	r2, #512
 1990 01fc 01E0     		b	.L197
 1991              	.L232:
 1992 01fe 4FF40032 		mov	r2, #131072
 1993              	.L197:
 646:Drivers/STM32F1xx_HAL_Driver/Src/stm32f1xx_hal_dma.c **** 
 1994              		.loc 1 646 0 discriminator 46
 1995 0202 354B     		ldr	r3, .L245+4
ARM GAS  /tmp/ccfkKAY2.s 			page 57


 1996 0204 5A60     		str	r2, [r3, #4]
 1997 0206 42E0     		b	.L198
 1998              	.L196:
 646:Drivers/STM32F1xx_HAL_Driver/Src/stm32f1xx_hal_dma.c **** 
 1999              		.loc 1 646 0 discriminator 2
 2000 0208 344A     		ldr	r2, .L245+8
 2001 020a 9342     		cmp	r3, r2
 2002 020c 21D0     		beq	.L233
 646:Drivers/STM32F1xx_HAL_Driver/Src/stm32f1xx_hal_dma.c **** 
 2003              		.loc 1 646 0 discriminator 47
 2004 020e 1432     		adds	r2, r2, #20
 2005 0210 9342     		cmp	r3, r2
 2006 0212 20D0     		beq	.L234
 646:Drivers/STM32F1xx_HAL_Driver/Src/stm32f1xx_hal_dma.c **** 
 2007              		.loc 1 646 0 discriminator 49
 2008 0214 1432     		adds	r2, r2, #20
 2009 0216 9342     		cmp	r3, r2
 2010 0218 1FD0     		beq	.L235
 646:Drivers/STM32F1xx_HAL_Driver/Src/stm32f1xx_hal_dma.c **** 
 2011              		.loc 1 646 0 discriminator 51
 2012 021a 1432     		adds	r2, r2, #20
 2013 021c 9342     		cmp	r3, r2
 2014 021e 1FD0     		beq	.L236
 646:Drivers/STM32F1xx_HAL_Driver/Src/stm32f1xx_hal_dma.c **** 
 2015              		.loc 1 646 0 discriminator 53
 2016 0220 1432     		adds	r2, r2, #20
 2017 0222 9342     		cmp	r3, r2
 2018 0224 1FD0     		beq	.L237
 646:Drivers/STM32F1xx_HAL_Driver/Src/stm32f1xx_hal_dma.c **** 
 2019              		.loc 1 646 0 discriminator 55
 2020 0226 1432     		adds	r2, r2, #20
 2021 0228 9342     		cmp	r3, r2
 2022 022a 1FD0     		beq	.L238
 646:Drivers/STM32F1xx_HAL_Driver/Src/stm32f1xx_hal_dma.c **** 
 2023              		.loc 1 646 0 discriminator 57
 2024 022c 1432     		adds	r2, r2, #20
 2025 022e 9342     		cmp	r3, r2
 2026 0230 1FD0     		beq	.L239
 646:Drivers/STM32F1xx_HAL_Driver/Src/stm32f1xx_hal_dma.c **** 
 2027              		.loc 1 646 0 discriminator 59
 2028 0232 02F56272 		add	r2, r2, #904
 2029 0236 9342     		cmp	r3, r2
 2030 0238 1ED0     		beq	.L240
 646:Drivers/STM32F1xx_HAL_Driver/Src/stm32f1xx_hal_dma.c **** 
 2031              		.loc 1 646 0 discriminator 61
 2032 023a 1432     		adds	r2, r2, #20
 2033 023c 9342     		cmp	r3, r2
 2034 023e 1DD0     		beq	.L241
 646:Drivers/STM32F1xx_HAL_Driver/Src/stm32f1xx_hal_dma.c **** 
 2035              		.loc 1 646 0 discriminator 63
 2036 0240 1432     		adds	r2, r2, #20
 2037 0242 9342     		cmp	r3, r2
 2038 0244 1CD0     		beq	.L242
 646:Drivers/STM32F1xx_HAL_Driver/Src/stm32f1xx_hal_dma.c **** 
 2039              		.loc 1 646 0 discriminator 65
 2040 0246 1432     		adds	r2, r2, #20
 2041 0248 9342     		cmp	r3, r2
ARM GAS  /tmp/ccfkKAY2.s 			page 58


 2042 024a 1CD1     		bne	.L243
 646:Drivers/STM32F1xx_HAL_Driver/Src/stm32f1xx_hal_dma.c **** 
 2043              		.loc 1 646 0
 2044 024c 4FF40052 		mov	r2, #8192
 2045 0250 1BE0     		b	.L199
 2046              	.L233:
 2047 0252 0222     		movs	r2, #2
 2048 0254 19E0     		b	.L199
 2049              	.L234:
 2050 0256 2022     		movs	r2, #32
 2051 0258 17E0     		b	.L199
 2052              	.L235:
 2053 025a 4FF40072 		mov	r2, #512
 2054 025e 14E0     		b	.L199
 2055              	.L236:
 2056 0260 4FF40052 		mov	r2, #8192
 2057 0264 11E0     		b	.L199
 2058              	.L237:
 2059 0266 4FF40032 		mov	r2, #131072
 2060 026a 0EE0     		b	.L199
 2061              	.L238:
 2062 026c 4FF40012 		mov	r2, #2097152
 2063 0270 0BE0     		b	.L199
 2064              	.L239:
 2065 0272 4FF00072 		mov	r2, #33554432
 2066 0276 08E0     		b	.L199
 2067              	.L240:
 2068 0278 0222     		movs	r2, #2
 2069 027a 06E0     		b	.L199
 2070              	.L241:
 2071 027c 2022     		movs	r2, #32
 2072 027e 04E0     		b	.L199
 2073              	.L242:
 2074 0280 4FF40072 		mov	r2, #512
 2075 0284 01E0     		b	.L199
 2076              	.L243:
 2077 0286 4FF40032 		mov	r2, #131072
 2078              	.L199:
 646:Drivers/STM32F1xx_HAL_Driver/Src/stm32f1xx_hal_dma.c **** 
 2079              		.loc 1 646 0 discriminator 90
 2080 028a 154B     		ldr	r3, .L245+12
 2081 028c 5A60     		str	r2, [r3, #4]
 2082              	.L198:
 649:Drivers/STM32F1xx_HAL_Driver/Src/stm32f1xx_hal_dma.c **** 
 2083              		.loc 1 649 0 is_stmt 1
 2084 028e 0023     		movs	r3, #0
 2085 0290 80F82030 		strb	r3, [r0, #32]
 651:Drivers/STM32F1xx_HAL_Driver/Src/stm32f1xx_hal_dma.c ****     {
 2086              		.loc 1 651 0
 2087 0294 836A     		ldr	r3, [r0, #40]
 2088 0296 E3B1     		cbz	r3, .L186
 654:Drivers/STM32F1xx_HAL_Driver/Src/stm32f1xx_hal_dma.c ****     }
 2089              		.loc 1 654 0
 2090 0298 9847     		blx	r3
 2091              	.LVL69:
 2092 029a 38BD     		pop	{r3, r4, r5, pc}
 2093              	.LVL70:
ARM GAS  /tmp/ccfkKAY2.s 			page 59


 2094              	.L194:
 659:Drivers/STM32F1xx_HAL_Driver/Src/stm32f1xx_hal_dma.c ****   {
 2095              		.loc 1 659 0
 2096 029c 0823     		movs	r3, #8
 2097 029e 03FA01F1 		lsl	r1, r3, r1
 2098 02a2 0A42     		tst	r2, r1
 2099 02a4 15D0     		beq	.L186
 659:Drivers/STM32F1xx_HAL_Driver/Src/stm32f1xx_hal_dma.c ****   {
 2100              		.loc 1 659 0 is_stmt 0 discriminator 1
 2101 02a6 15F0080F 		tst	r5, #8
 2102 02aa 12D0     		beq	.L186
 664:Drivers/STM32F1xx_HAL_Driver/Src/stm32f1xx_hal_dma.c **** 
 2103              		.loc 1 664 0 is_stmt 1
 2104 02ac 2368     		ldr	r3, [r4]
 2105 02ae 23F00E03 		bic	r3, r3, #14
 2106 02b2 2360     		str	r3, [r4]
 667:Drivers/STM32F1xx_HAL_Driver/Src/stm32f1xx_hal_dma.c **** 
 2107              		.loc 1 667 0
 2108 02b4 C16B     		ldr	r1, [r0, #60]
 2109 02b6 026C     		ldr	r2, [r0, #64]
 2110              	.LVL71:
 2111 02b8 0123     		movs	r3, #1
 2112 02ba 03FA02F2 		lsl	r2, r3, r2
 2113 02be 4A60     		str	r2, [r1, #4]
 670:Drivers/STM32F1xx_HAL_Driver/Src/stm32f1xx_hal_dma.c **** 
 2114              		.loc 1 670 0
 2115 02c0 8363     		str	r3, [r0, #56]
 673:Drivers/STM32F1xx_HAL_Driver/Src/stm32f1xx_hal_dma.c **** 
 2116              		.loc 1 673 0
 2117 02c2 80F82130 		strb	r3, [r0, #33]
 676:Drivers/STM32F1xx_HAL_Driver/Src/stm32f1xx_hal_dma.c **** 
 2118              		.loc 1 676 0
 2119 02c6 0023     		movs	r3, #0
 2120 02c8 80F82030 		strb	r3, [r0, #32]
 678:Drivers/STM32F1xx_HAL_Driver/Src/stm32f1xx_hal_dma.c ****     {
 2121              		.loc 1 678 0
 2122 02cc 036B     		ldr	r3, [r0, #48]
 2123 02ce 03B1     		cbz	r3, .L186
 681:Drivers/STM32F1xx_HAL_Driver/Src/stm32f1xx_hal_dma.c ****     }
 2124              		.loc 1 681 0
 2125 02d0 9847     		blx	r3
 2126              	.LVL72:
 2127              	.L186:
 2128 02d2 38BD     		pop	{r3, r4, r5, pc}
 2129              	.LVL73:
 2130              	.L246:
 2131              		.align	2
 2132              	.L245:
 2133 02d4 80000240 		.word	1073873024
 2134 02d8 00040240 		.word	1073873920
 2135 02dc 08000240 		.word	1073872904
 2136 02e0 00000240 		.word	1073872896
 2137              		.cfi_endproc
 2138              	.LFE71:
 2140              		.section	.text.HAL_DMA_RegisterCallback,"ax",%progbits
 2141              		.align	2
 2142              		.global	HAL_DMA_RegisterCallback
ARM GAS  /tmp/ccfkKAY2.s 			page 60


 2143              		.thumb
 2144              		.thumb_func
 2146              	HAL_DMA_RegisterCallback:
 2147              	.LFB72:
 698:Drivers/STM32F1xx_HAL_Driver/Src/stm32f1xx_hal_dma.c ****   HAL_StatusTypeDef status = HAL_OK;
 2148              		.loc 1 698 0
 2149              		.cfi_startproc
 2150              		@ args = 0, pretend = 0, frame = 0
 2151              		@ frame_needed = 0, uses_anonymous_args = 0
 2152              		@ link register save eliminated.
 2153              	.LVL74:
 702:Drivers/STM32F1xx_HAL_Driver/Src/stm32f1xx_hal_dma.c ****   
 2154              		.loc 1 702 0
 2155 0000 90F82030 		ldrb	r3, [r0, #32]	@ zero_extendqisi2
 2156 0004 012B     		cmp	r3, #1
 2157 0006 20D0     		beq	.L255
 702:Drivers/STM32F1xx_HAL_Driver/Src/stm32f1xx_hal_dma.c ****   
 2158              		.loc 1 702 0 is_stmt 0 discriminator 2
 2159 0008 0123     		movs	r3, #1
 2160 000a 80F82030 		strb	r3, [r0, #32]
 704:Drivers/STM32F1xx_HAL_Driver/Src/stm32f1xx_hal_dma.c ****   {
 2161              		.loc 1 704 0 is_stmt 1 discriminator 2
 2162 000e 90F82130 		ldrb	r3, [r0, #33]	@ zero_extendqisi2
 2163 0012 012B     		cmp	r3, #1
 2164 0014 11D1     		bne	.L256
 706:Drivers/STM32F1xx_HAL_Driver/Src/stm32f1xx_hal_dma.c ****     {
 2165              		.loc 1 706 0
 2166 0016 0329     		cmp	r1, #3
 2167 0018 11D8     		bhi	.L257
 2168 001a DFE801F0 		tbb	[pc, r1]
 2169              	.L251:
 2170 001e 02       		.byte	(.L250-.L251)/2
 2171 001f 05       		.byte	(.L252-.L251)/2
 2172 0020 08       		.byte	(.L253-.L251)/2
 2173 0021 0B       		.byte	(.L254-.L251)/2
 2174              		.p2align 1
 2175              	.L250:
 709:Drivers/STM32F1xx_HAL_Driver/Src/stm32f1xx_hal_dma.c ****       break;
 2176              		.loc 1 709 0
 2177 0022 8262     		str	r2, [r0, #40]
 699:Drivers/STM32F1xx_HAL_Driver/Src/stm32f1xx_hal_dma.c ****   
 2178              		.loc 1 699 0
 2179 0024 0023     		movs	r3, #0
 710:Drivers/STM32F1xx_HAL_Driver/Src/stm32f1xx_hal_dma.c ****       
 2180              		.loc 1 710 0
 2181 0026 0BE0     		b	.L249
 2182              	.L252:
 713:Drivers/STM32F1xx_HAL_Driver/Src/stm32f1xx_hal_dma.c ****       break;         
 2183              		.loc 1 713 0
 2184 0028 C262     		str	r2, [r0, #44]
 699:Drivers/STM32F1xx_HAL_Driver/Src/stm32f1xx_hal_dma.c ****   
 2185              		.loc 1 699 0
 2186 002a 0023     		movs	r3, #0
 714:Drivers/STM32F1xx_HAL_Driver/Src/stm32f1xx_hal_dma.c **** 
 2187              		.loc 1 714 0
 2188 002c 08E0     		b	.L249
 2189              	.L253:
ARM GAS  /tmp/ccfkKAY2.s 			page 61


 717:Drivers/STM32F1xx_HAL_Driver/Src/stm32f1xx_hal_dma.c ****       break;         
 2190              		.loc 1 717 0
 2191 002e 0263     		str	r2, [r0, #48]
 699:Drivers/STM32F1xx_HAL_Driver/Src/stm32f1xx_hal_dma.c ****   
 2192              		.loc 1 699 0
 2193 0030 0023     		movs	r3, #0
 718:Drivers/STM32F1xx_HAL_Driver/Src/stm32f1xx_hal_dma.c ****       
 2194              		.loc 1 718 0
 2195 0032 05E0     		b	.L249
 2196              	.L254:
 721:Drivers/STM32F1xx_HAL_Driver/Src/stm32f1xx_hal_dma.c ****       break; 
 2197              		.loc 1 721 0
 2198 0034 4263     		str	r2, [r0, #52]
 699:Drivers/STM32F1xx_HAL_Driver/Src/stm32f1xx_hal_dma.c ****   
 2199              		.loc 1 699 0
 2200 0036 0023     		movs	r3, #0
 722:Drivers/STM32F1xx_HAL_Driver/Src/stm32f1xx_hal_dma.c ****       
 2201              		.loc 1 722 0
 2202 0038 02E0     		b	.L249
 2203              	.L256:
 731:Drivers/STM32F1xx_HAL_Driver/Src/stm32f1xx_hal_dma.c ****   } 
 2204              		.loc 1 731 0
 2205 003a 0123     		movs	r3, #1
 2206 003c 00E0     		b	.L249
 2207              	.L257:
 725:Drivers/STM32F1xx_HAL_Driver/Src/stm32f1xx_hal_dma.c ****       break;                                                            
 2208              		.loc 1 725 0
 2209 003e 0123     		movs	r3, #1
 2210              	.L249:
 2211              	.LVL75:
 735:Drivers/STM32F1xx_HAL_Driver/Src/stm32f1xx_hal_dma.c ****   
 2212              		.loc 1 735 0
 2213 0040 0022     		movs	r2, #0
 2214              	.LVL76:
 2215 0042 80F82020 		strb	r2, [r0, #32]
 737:Drivers/STM32F1xx_HAL_Driver/Src/stm32f1xx_hal_dma.c **** }
 2216              		.loc 1 737 0
 2217 0046 1846     		mov	r0, r3
 2218              	.LVL77:
 2219 0048 7047     		bx	lr
 2220              	.LVL78:
 2221              	.L255:
 702:Drivers/STM32F1xx_HAL_Driver/Src/stm32f1xx_hal_dma.c ****   
 2222              		.loc 1 702 0
 2223 004a 0220     		movs	r0, #2
 2224              	.LVL79:
 738:Drivers/STM32F1xx_HAL_Driver/Src/stm32f1xx_hal_dma.c **** 
 2225              		.loc 1 738 0
 2226 004c 7047     		bx	lr
 2227              		.cfi_endproc
 2228              	.LFE72:
 2230 004e 00BF     		.section	.text.HAL_DMA_UnRegisterCallback,"ax",%progbits
 2231              		.align	2
 2232              		.global	HAL_DMA_UnRegisterCallback
 2233              		.thumb
 2234              		.thumb_func
 2236              	HAL_DMA_UnRegisterCallback:
ARM GAS  /tmp/ccfkKAY2.s 			page 62


 2237              	.LFB73:
 749:Drivers/STM32F1xx_HAL_Driver/Src/stm32f1xx_hal_dma.c ****   HAL_StatusTypeDef status = HAL_OK;
 2238              		.loc 1 749 0
 2239              		.cfi_startproc
 2240              		@ args = 0, pretend = 0, frame = 0
 2241              		@ frame_needed = 0, uses_anonymous_args = 0
 2242              		@ link register save eliminated.
 2243              	.LVL80:
 753:Drivers/STM32F1xx_HAL_Driver/Src/stm32f1xx_hal_dma.c ****   
 2244              		.loc 1 753 0
 2245 0000 90F82030 		ldrb	r3, [r0, #32]	@ zero_extendqisi2
 2246 0004 012B     		cmp	r3, #1
 2247 0006 27D0     		beq	.L267
 753:Drivers/STM32F1xx_HAL_Driver/Src/stm32f1xx_hal_dma.c ****   
 2248              		.loc 1 753 0 is_stmt 0 discriminator 2
 2249 0008 0123     		movs	r3, #1
 2250 000a 80F82030 		strb	r3, [r0, #32]
 755:Drivers/STM32F1xx_HAL_Driver/Src/stm32f1xx_hal_dma.c ****   {
 2251              		.loc 1 755 0 is_stmt 1 discriminator 2
 2252 000e 90F82130 		ldrb	r3, [r0, #33]	@ zero_extendqisi2
 2253 0012 012B     		cmp	r3, #1
 2254 0014 18D1     		bne	.L268
 757:Drivers/STM32F1xx_HAL_Driver/Src/stm32f1xx_hal_dma.c ****     {
 2255              		.loc 1 757 0
 2256 0016 0429     		cmp	r1, #4
 2257 0018 18D8     		bhi	.L269
 2258 001a DFE801F0 		tbb	[pc, r1]
 2259              	.L262:
 2260 001e 03       		.byte	(.L261-.L262)/2
 2261 001f 06       		.byte	(.L263-.L262)/2
 2262 0020 09       		.byte	(.L264-.L262)/2
 2263 0021 0C       		.byte	(.L265-.L262)/2
 2264 0022 0F       		.byte	(.L266-.L262)/2
 2265 0023 00       		.p2align 1
 2266              	.L261:
 760:Drivers/STM32F1xx_HAL_Driver/Src/stm32f1xx_hal_dma.c ****       break;
 2267              		.loc 1 760 0
 2268 0024 0023     		movs	r3, #0
 2269 0026 8362     		str	r3, [r0, #40]
 761:Drivers/STM32F1xx_HAL_Driver/Src/stm32f1xx_hal_dma.c **** 
 2270              		.loc 1 761 0
 2271 0028 11E0     		b	.L260
 2272              	.L263:
 764:Drivers/STM32F1xx_HAL_Driver/Src/stm32f1xx_hal_dma.c ****       break;         
 2273              		.loc 1 764 0
 2274 002a 0023     		movs	r3, #0
 2275 002c C362     		str	r3, [r0, #44]
 765:Drivers/STM32F1xx_HAL_Driver/Src/stm32f1xx_hal_dma.c **** 
 2276              		.loc 1 765 0
 2277 002e 0EE0     		b	.L260
 2278              	.L264:
 768:Drivers/STM32F1xx_HAL_Driver/Src/stm32f1xx_hal_dma.c ****       break;         
 2279              		.loc 1 768 0
 2280 0030 0023     		movs	r3, #0
 2281 0032 0363     		str	r3, [r0, #48]
 769:Drivers/STM32F1xx_HAL_Driver/Src/stm32f1xx_hal_dma.c **** 
 2282              		.loc 1 769 0
ARM GAS  /tmp/ccfkKAY2.s 			page 63


 2283 0034 0BE0     		b	.L260
 2284              	.L265:
 772:Drivers/STM32F1xx_HAL_Driver/Src/stm32f1xx_hal_dma.c ****       break; 
 2285              		.loc 1 772 0
 2286 0036 0023     		movs	r3, #0
 2287 0038 4363     		str	r3, [r0, #52]
 773:Drivers/STM32F1xx_HAL_Driver/Src/stm32f1xx_hal_dma.c **** 
 2288              		.loc 1 773 0
 2289 003a 08E0     		b	.L260
 2290              	.L266:
 776:Drivers/STM32F1xx_HAL_Driver/Src/stm32f1xx_hal_dma.c ****       hdma->XferHalfCpltCallback = NULL;
 2291              		.loc 1 776 0
 2292 003c 0023     		movs	r3, #0
 2293 003e 8362     		str	r3, [r0, #40]
 777:Drivers/STM32F1xx_HAL_Driver/Src/stm32f1xx_hal_dma.c ****       hdma->XferErrorCallback = NULL;
 2294              		.loc 1 777 0
 2295 0040 C362     		str	r3, [r0, #44]
 778:Drivers/STM32F1xx_HAL_Driver/Src/stm32f1xx_hal_dma.c ****       hdma->XferAbortCallback = NULL;
 2296              		.loc 1 778 0
 2297 0042 0363     		str	r3, [r0, #48]
 779:Drivers/STM32F1xx_HAL_Driver/Src/stm32f1xx_hal_dma.c ****       break; 
 2298              		.loc 1 779 0
 2299 0044 4363     		str	r3, [r0, #52]
 780:Drivers/STM32F1xx_HAL_Driver/Src/stm32f1xx_hal_dma.c **** 
 2300              		.loc 1 780 0
 2301 0046 02E0     		b	.L260
 2302              	.L268:
 789:Drivers/STM32F1xx_HAL_Driver/Src/stm32f1xx_hal_dma.c ****   } 
 2303              		.loc 1 789 0
 2304 0048 0123     		movs	r3, #1
 2305 004a 00E0     		b	.L260
 2306              	.L269:
 783:Drivers/STM32F1xx_HAL_Driver/Src/stm32f1xx_hal_dma.c ****       break;
 2307              		.loc 1 783 0
 2308 004c 0123     		movs	r3, #1
 2309              	.L260:
 2310              	.LVL81:
 793:Drivers/STM32F1xx_HAL_Driver/Src/stm32f1xx_hal_dma.c ****   
 2311              		.loc 1 793 0
 2312 004e 0022     		movs	r2, #0
 2313 0050 80F82020 		strb	r2, [r0, #32]
 795:Drivers/STM32F1xx_HAL_Driver/Src/stm32f1xx_hal_dma.c **** }
 2314              		.loc 1 795 0
 2315 0054 1846     		mov	r0, r3
 2316              	.LVL82:
 2317 0056 7047     		bx	lr
 2318              	.LVL83:
 2319              	.L267:
 753:Drivers/STM32F1xx_HAL_Driver/Src/stm32f1xx_hal_dma.c ****   
 2320              		.loc 1 753 0
 2321 0058 0220     		movs	r0, #2
 2322              	.LVL84:
 796:Drivers/STM32F1xx_HAL_Driver/Src/stm32f1xx_hal_dma.c ****   
 2323              		.loc 1 796 0
 2324 005a 7047     		bx	lr
 2325              		.cfi_endproc
 2326              	.LFE73:
ARM GAS  /tmp/ccfkKAY2.s 			page 64


 2328              		.section	.text.HAL_DMA_GetState,"ax",%progbits
 2329              		.align	2
 2330              		.global	HAL_DMA_GetState
 2331              		.thumb
 2332              		.thumb_func
 2334              	HAL_DMA_GetState:
 2335              	.LFB74:
 825:Drivers/STM32F1xx_HAL_Driver/Src/stm32f1xx_hal_dma.c ****   /* Return DMA handle state */
 2336              		.loc 1 825 0
 2337              		.cfi_startproc
 2338              		@ args = 0, pretend = 0, frame = 0
 2339              		@ frame_needed = 0, uses_anonymous_args = 0
 2340              		@ link register save eliminated.
 2341              	.LVL85:
 828:Drivers/STM32F1xx_HAL_Driver/Src/stm32f1xx_hal_dma.c **** 
 2342              		.loc 1 828 0
 2343 0000 90F82100 		ldrb	r0, [r0, #33]	@ zero_extendqisi2
 2344              	.LVL86:
 2345 0004 7047     		bx	lr
 2346              		.cfi_endproc
 2347              	.LFE74:
 2349 0006 00BF     		.section	.text.HAL_DMA_GetError,"ax",%progbits
 2350              		.align	2
 2351              		.global	HAL_DMA_GetError
 2352              		.thumb
 2353              		.thumb_func
 2355              	HAL_DMA_GetError:
 2356              	.LFB75:
 837:Drivers/STM32F1xx_HAL_Driver/Src/stm32f1xx_hal_dma.c ****   return hdma->ErrorCode;
 2357              		.loc 1 837 0
 2358              		.cfi_startproc
 2359              		@ args = 0, pretend = 0, frame = 0
 2360              		@ frame_needed = 0, uses_anonymous_args = 0
 2361              		@ link register save eliminated.
 2362              	.LVL87:
 838:Drivers/STM32F1xx_HAL_Driver/Src/stm32f1xx_hal_dma.c **** }
 2363              		.loc 1 838 0
 2364 0000 806B     		ldr	r0, [r0, #56]
 2365              	.LVL88:
 839:Drivers/STM32F1xx_HAL_Driver/Src/stm32f1xx_hal_dma.c **** 
 2366              		.loc 1 839 0
 2367 0002 7047     		bx	lr
 2368              		.cfi_endproc
 2369              	.LFE75:
 2371              		.text
 2372              	.Letext0:
 2373              		.file 2 "/home/user/Library/gcc-arm-none-eabi-5_4-2016q3/arm-none-eabi/include/machine/_default_ty
 2374              		.file 3 "/home/user/Library/gcc-arm-none-eabi-5_4-2016q3/arm-none-eabi/include/sys/_stdint.h"
 2375              		.file 4 "Drivers/CMSIS/Device/ST/STM32F1xx/Include/stm32f103xe.h"
 2376              		.file 5 "Drivers/CMSIS/Device/ST/STM32F1xx/Include/stm32f1xx.h"
 2377              		.file 6 "Drivers/STM32F1xx_HAL_Driver/Inc/stm32f1xx_hal_def.h"
 2378              		.file 7 "Drivers/STM32F1xx_HAL_Driver/Inc/stm32f1xx_hal_dma.h"
 2379              		.file 8 "Drivers/CMSIS/Include/core_cm3.h"
 2380              		.file 9 "Drivers/STM32F1xx_HAL_Driver/Inc/stm32f1xx_hal.h"
ARM GAS  /tmp/ccfkKAY2.s 			page 65

