ARM GAS  /tmp/cc2OYtPb.s 			page 1


   1              		.syntax unified
   2              		.cpu cortex-m3
   3              		.fpu softvfp
   4              		.eabi_attribute 20, 1
   5              		.eabi_attribute 21, 1
   6              		.eabi_attribute 23, 3
   7              		.eabi_attribute 24, 1
   8              		.eabi_attribute 25, 1
   9              		.eabi_attribute 26, 1
  10              		.eabi_attribute 30, 1
  11              		.eabi_attribute 34, 1
  12              		.eabi_attribute 18, 4
  13              		.thumb
  14              		.syntax unified
  15              		.file	"main.c"
  16              		.text
  17              	.Ltext0:
  18              		.cfi_sections	.debug_frame
  19              		.section	.text.MX_DMA_Init,"ax",%progbits
  20              		.align	2
  21              		.thumb
  22              		.thumb_func
  24              	MX_DMA_Init:
  25              	.LFB76:
  26              		.file 1 "Src/main.c"
   1:Src/main.c    **** 
   2:Src/main.c    **** /**
   3:Src/main.c    ****   ******************************************************************************
   4:Src/main.c    ****   * @file           : main.c
   5:Src/main.c    ****   * @brief          : Main program body
   6:Src/main.c    ****   ******************************************************************************
   7:Src/main.c    ****   * This notice applies to any and all portions of this file
   8:Src/main.c    ****   * that are not between comment pairs USER CODE BEGIN and
   9:Src/main.c    ****   * USER CODE END. Other portions of this file, whether 
  10:Src/main.c    ****   * inserted by the user or by software development tools
  11:Src/main.c    ****   * are owned by their respective copyright owners.
  12:Src/main.c    ****   *
  13:Src/main.c    ****   * Copyright (c) 2019 STMicroelectronics International N.V. 
  14:Src/main.c    ****   * All rights reserved.
  15:Src/main.c    ****   *
  16:Src/main.c    ****   * Redistribution and use in source and binary forms, with or without 
  17:Src/main.c    ****   * modification, are permitted, provided that the following conditions are met:
  18:Src/main.c    ****   *
  19:Src/main.c    ****   * 1. Redistribution of source code must retain the above copyright notice, 
  20:Src/main.c    ****   *    this list of conditions and the following disclaimer.
  21:Src/main.c    ****   * 2. Redistributions in binary form must reproduce the above copyright notice,
  22:Src/main.c    ****   *    this list of conditions and the following disclaimer in the documentation
  23:Src/main.c    ****   *    and/or other materials provided with the distribution.
  24:Src/main.c    ****   * 3. Neither the name of STMicroelectronics nor the names of other 
  25:Src/main.c    ****   *    contributors to this software may be used to endorse or promote products 
  26:Src/main.c    ****   *    derived from this software without specific written permission.
  27:Src/main.c    ****   * 4. This software, including modifications and/or derivative works of this 
  28:Src/main.c    ****   *    software, must execute solely and exclusively on microcontroller or
  29:Src/main.c    ****   *    microprocessor devices manufactured by or for STMicroelectronics.
  30:Src/main.c    ****   * 5. Redistribution and use of this software other than as permitted under 
  31:Src/main.c    ****   *    this license is void and will automatically terminate your rights under 
  32:Src/main.c    ****   *    this license. 
ARM GAS  /tmp/cc2OYtPb.s 			page 2


  33:Src/main.c    ****   *
  34:Src/main.c    ****   * THIS SOFTWARE IS PROVIDED BY STMICROELECTRONICS AND CONTRIBUTORS "AS IS" 
  35:Src/main.c    ****   * AND ANY EXPRESS, IMPLIED OR STATUTORY WARRANTIES, INCLUDING, BUT NOT 
  36:Src/main.c    ****   * LIMITED TO, THE IMPLIED WARRANTIES OF MERCHANTABILITY, FITNESS FOR A 
  37:Src/main.c    ****   * PARTICULAR PURPOSE AND NON-INFRINGEMENT OF THIRD PARTY INTELLECTUAL PROPERTY
  38:Src/main.c    ****   * RIGHTS ARE DISCLAIMED TO THE FULLEST EXTENT PERMITTED BY LAW. IN NO EVENT 
  39:Src/main.c    ****   * SHALL STMICROELECTRONICS OR CONTRIBUTORS BE LIABLE FOR ANY DIRECT, INDIRECT,
  40:Src/main.c    ****   * INCIDENTAL, SPECIAL, EXEMPLARY, OR CONSEQUENTIAL DAMAGES (INCLUDING, BUT NOT
  41:Src/main.c    ****   * LIMITED TO, PROCUREMENT OF SUBSTITUTE GOODS OR SERVICES; LOSS OF USE, DATA, 
  42:Src/main.c    ****   * OR PROFITS; OR BUSINESS INTERRUPTION) HOWEVER CAUSED AND ON ANY THEORY OF 
  43:Src/main.c    ****   * LIABILITY, WHETHER IN CONTRACT, STRICT LIABILITY, OR TORT (INCLUDING 
  44:Src/main.c    ****   * NEGLIGENCE OR OTHERWISE) ARISING IN ANY WAY OUT OF THE USE OF THIS SOFTWARE,
  45:Src/main.c    ****   * EVEN IF ADVISED OF THE POSSIBILITY OF SUCH DAMAGE.
  46:Src/main.c    ****   *
  47:Src/main.c    ****   ******************************************************************************
  48:Src/main.c    ****   */
  49:Src/main.c    **** /* Includes ------------------------------------------------------------------*/
  50:Src/main.c    **** #include "main.h"
  51:Src/main.c    **** #include "stm32f1xx_hal.h"
  52:Src/main.c    **** #include "cmsis_os.h"
  53:Src/main.c    **** 
  54:Src/main.c    **** /* USER CODE BEGIN Includes */
  55:Src/main.c    **** 
  56:Src/main.c    **** /* USER CODE END Includes */
  57:Src/main.c    **** 
  58:Src/main.c    **** /* Private variables ---------------------------------------------------------*/
  59:Src/main.c    **** CAN_HandleTypeDef hcan;
  60:Src/main.c    **** 
  61:Src/main.c    **** UART_HandleTypeDef huart1;
  62:Src/main.c    **** UART_HandleTypeDef huart2;
  63:Src/main.c    **** UART_HandleTypeDef huart3;
  64:Src/main.c    **** DMA_HandleTypeDef hdma_usart2_rx;
  65:Src/main.c    **** 
  66:Src/main.c    **** osThreadId Task0Handle;
  67:Src/main.c    **** osThreadId Task1Handle;
  68:Src/main.c    **** 
  69:Src/main.c    **** /* USER CODE BEGIN PV */
  70:Src/main.c    **** /* Private variables ---------------------------------------------------------*/
  71:Src/main.c    **** CAN_FilterConfTypeDef  sFliterConfig;
  72:Src/main.c    **** CanTxMsgTypeDef TxMessage;
  73:Src/main.c    **** CanRxMsgTypeDef RxMessage;
  74:Src/main.c    **** 
  75:Src/main.c    **** uint8_t aRxBuffer1[1];
  76:Src/main.c    **** uint8_t aRxBuffer2[1];
  77:Src/main.c    **** uint8_t aRxBuffer3[1];
  78:Src/main.c    **** 
  79:Src/main.c    **** uint8_t aRxBuffer2_Data[4];
  80:Src/main.c    **** uint8_t aRxBuffer2_Data_flag = 0;
  81:Src/main.c    **** uint8_t aRxBuffer2_Data_Index = 0;
  82:Src/main.c    **** 
  83:Src/main.c    **** #define BUFFERSIZE 255                                
  84:Src/main.c    **** uint8_t ReceiveBuff[BUFFERSIZE];         //æ¥æ”¶ç¼“å†²åŒº
  85:Src/main.c    **** uint8_t recv_end_flag = 0,Rx_len;        //æ¥æ”¶å®Œæˆä¸­æ–­ï¼Œæ¥æ”¶åˆ°å­—ç¬¦é•¿åº¦
  86:Src/main.c    **** /* USER CODE END PV */
  87:Src/main.c    **** 
  88:Src/main.c    **** /* Private function prototypes -----------------------------------------------*/
  89:Src/main.c    **** void SystemClock_Config(void);
ARM GAS  /tmp/cc2OYtPb.s 			page 3


  90:Src/main.c    **** static void MX_GPIO_Init(void);
  91:Src/main.c    **** static void MX_DMA_Init(void);
  92:Src/main.c    **** static void MX_CAN_Init(void);
  93:Src/main.c    **** static void MX_USART1_UART_Init(void);
  94:Src/main.c    **** static void MX_USART2_UART_Init(void);
  95:Src/main.c    **** static void MX_USART3_UART_Init(void);
  96:Src/main.c    **** void Func_Task0(void const * argument);
  97:Src/main.c    **** void Func_Task1(void const * argument);
  98:Src/main.c    **** static void MX_NVIC_Init(void);
  99:Src/main.c    **** 
 100:Src/main.c    **** /* USER CODE BEGIN PFP */
 101:Src/main.c    **** /* Private function prototypes -----------------------------------------------*/
 102:Src/main.c    **** void uartdamget(void);
 103:Src/main.c    **** /* USER CODE END PFP */
 104:Src/main.c    **** 
 105:Src/main.c    **** /* USER CODE BEGIN 0 */
 106:Src/main.c    **** 
 107:Src/main.c    **** /* USER CODE END 0 */
 108:Src/main.c    **** 
 109:Src/main.c    **** /**
 110:Src/main.c    ****   * @brief  The application entry point.
 111:Src/main.c    ****   *
 112:Src/main.c    ****   * @retval None
 113:Src/main.c    ****   */
 114:Src/main.c    **** int main(void)
 115:Src/main.c    **** {
 116:Src/main.c    ****   /* USER CODE BEGIN 1 */
 117:Src/main.c    **** 
 118:Src/main.c    ****   /* USER CODE END 1 */
 119:Src/main.c    **** 
 120:Src/main.c    ****   /* MCU Configuration----------------------------------------------------------*/
 121:Src/main.c    **** 
 122:Src/main.c    ****   /* Reset of all peripherals, Initializes the Flash interface and the Systick. */
 123:Src/main.c    ****   HAL_Init();
 124:Src/main.c    **** 
 125:Src/main.c    ****   /* USER CODE BEGIN Init */
 126:Src/main.c    **** 
 127:Src/main.c    ****   /* USER CODE END Init */
 128:Src/main.c    **** 
 129:Src/main.c    ****   /* Configure the system clock */
 130:Src/main.c    ****   SystemClock_Config();
 131:Src/main.c    **** 
 132:Src/main.c    ****   /* USER CODE BEGIN SysInit */
 133:Src/main.c    **** 
 134:Src/main.c    ****   /* USER CODE END SysInit */
 135:Src/main.c    **** 
 136:Src/main.c    ****   /* Initialize all configured peripherals */
 137:Src/main.c    ****   MX_GPIO_Init();
 138:Src/main.c    ****   MX_DMA_Init();
 139:Src/main.c    ****   MX_CAN_Init();
 140:Src/main.c    ****   MX_USART1_UART_Init();
 141:Src/main.c    ****   MX_USART2_UART_Init();
 142:Src/main.c    ****   MX_USART3_UART_Init();
 143:Src/main.c    **** 
 144:Src/main.c    ****   /* Initialize interrupts */
 145:Src/main.c    ****   MX_NVIC_Init();
 146:Src/main.c    ****   /* USER CODE BEGIN 2 */
ARM GAS  /tmp/cc2OYtPb.s 			page 4


 147:Src/main.c    ****   HAL_UART_Transmit(&huart3,"DMA\r\n",5,10);
 148:Src/main.c    ****   /*        ä½¿èƒ½ä¸²å£2 IDLEä¸­æ–­        */
 149:Src/main.c    ****   __HAL_UART_ENABLE_IT(&huart2, UART_IT_IDLE);
 150:Src/main.c    ****   /* USER CODE END 2 */
 151:Src/main.c    **** 
 152:Src/main.c    ****   /* USER CODE BEGIN RTOS_MUTEX */
 153:Src/main.c    ****   /* add mutexes, ... */
 154:Src/main.c    ****   /* USER CODE END RTOS_MUTEX */
 155:Src/main.c    **** 
 156:Src/main.c    ****   /* USER CODE BEGIN RTOS_SEMAPHORES */
 157:Src/main.c    ****   /* add semaphores, ... */
 158:Src/main.c    ****   /* USER CODE END RTOS_SEMAPHORES */
 159:Src/main.c    **** 
 160:Src/main.c    ****   /* USER CODE BEGIN RTOS_TIMERS */
 161:Src/main.c    ****   /* start timers, add new ones, ... */
 162:Src/main.c    ****   /* USER CODE END RTOS_TIMERS */
 163:Src/main.c    **** 
 164:Src/main.c    ****   /* Create the thread(s) */
 165:Src/main.c    ****   /* definition and creation of Task0 */
 166:Src/main.c    ****   osThreadDef(Task0, Func_Task0, osPriorityNormal, 0, 256);
 167:Src/main.c    ****   Task0Handle = osThreadCreate(osThread(Task0), NULL);
 168:Src/main.c    **** 
 169:Src/main.c    ****   /* definition and creation of Task1 */
 170:Src/main.c    ****   osThreadDef(Task1, Func_Task1, osPriorityNormal, 0, 256);
 171:Src/main.c    ****   Task1Handle = osThreadCreate(osThread(Task1), NULL);
 172:Src/main.c    **** 
 173:Src/main.c    ****   /* USER CODE BEGIN RTOS_THREADS */
 174:Src/main.c    ****   /* add threads, ... */
 175:Src/main.c    ****   /* USER CODE END RTOS_THREADS */
 176:Src/main.c    **** 
 177:Src/main.c    ****   /* USER CODE BEGIN RTOS_QUEUES */
 178:Src/main.c    ****   /* add queues, ... */
 179:Src/main.c    ****   /* USER CODE END RTOS_QUEUES */
 180:Src/main.c    ****  
 181:Src/main.c    **** 
 182:Src/main.c    ****   /* Start scheduler */
 183:Src/main.c    ****   osKernelStart();
 184:Src/main.c    ****   
 185:Src/main.c    ****   /* We should never get here as control is now taken by the scheduler */
 186:Src/main.c    **** 
 187:Src/main.c    ****   /* Infinite loop */
 188:Src/main.c    ****   /* USER CODE BEGIN WHILE */
 189:Src/main.c    ****   while (1)
 190:Src/main.c    ****   {
 191:Src/main.c    **** 
 192:Src/main.c    ****   /* USER CODE END WHILE */
 193:Src/main.c    **** 
 194:Src/main.c    ****   /* USER CODE BEGIN 3 */
 195:Src/main.c    **** 
 196:Src/main.c    ****   }
 197:Src/main.c    ****   /* USER CODE END 3 */
 198:Src/main.c    **** 
 199:Src/main.c    **** }
 200:Src/main.c    **** 
 201:Src/main.c    **** /**
 202:Src/main.c    ****   * @brief System Clock Configuration
 203:Src/main.c    ****   * @retval None
ARM GAS  /tmp/cc2OYtPb.s 			page 5


 204:Src/main.c    ****   */
 205:Src/main.c    **** void SystemClock_Config(void)
 206:Src/main.c    **** {
 207:Src/main.c    **** 
 208:Src/main.c    ****   RCC_OscInitTypeDef RCC_OscInitStruct;
 209:Src/main.c    ****   RCC_ClkInitTypeDef RCC_ClkInitStruct;
 210:Src/main.c    **** 
 211:Src/main.c    ****     /**Initializes the CPU, AHB and APB busses clocks 
 212:Src/main.c    ****     */
 213:Src/main.c    ****   RCC_OscInitStruct.OscillatorType = RCC_OSCILLATORTYPE_HSE;
 214:Src/main.c    ****   RCC_OscInitStruct.HSEState = RCC_HSE_ON;
 215:Src/main.c    ****   RCC_OscInitStruct.HSEPredivValue = RCC_HSE_PREDIV_DIV1;
 216:Src/main.c    ****   RCC_OscInitStruct.HSIState = RCC_HSI_ON;
 217:Src/main.c    ****   RCC_OscInitStruct.PLL.PLLState = RCC_PLL_ON;
 218:Src/main.c    ****   RCC_OscInitStruct.PLL.PLLSource = RCC_PLLSOURCE_HSE;
 219:Src/main.c    ****   RCC_OscInitStruct.PLL.PLLMUL = RCC_PLL_MUL9;
 220:Src/main.c    ****   if (HAL_RCC_OscConfig(&RCC_OscInitStruct) != HAL_OK)
 221:Src/main.c    ****   {
 222:Src/main.c    ****     _Error_Handler(__FILE__, __LINE__);
 223:Src/main.c    ****   }
 224:Src/main.c    **** 
 225:Src/main.c    ****     /**Initializes the CPU, AHB and APB busses clocks 
 226:Src/main.c    ****     */
 227:Src/main.c    ****   RCC_ClkInitStruct.ClockType = RCC_CLOCKTYPE_HCLK|RCC_CLOCKTYPE_SYSCLK
 228:Src/main.c    ****                               |RCC_CLOCKTYPE_PCLK1|RCC_CLOCKTYPE_PCLK2;
 229:Src/main.c    ****   RCC_ClkInitStruct.SYSCLKSource = RCC_SYSCLKSOURCE_PLLCLK;
 230:Src/main.c    ****   RCC_ClkInitStruct.AHBCLKDivider = RCC_SYSCLK_DIV1;
 231:Src/main.c    ****   RCC_ClkInitStruct.APB1CLKDivider = RCC_HCLK_DIV2;
 232:Src/main.c    ****   RCC_ClkInitStruct.APB2CLKDivider = RCC_HCLK_DIV1;
 233:Src/main.c    **** 
 234:Src/main.c    ****   if (HAL_RCC_ClockConfig(&RCC_ClkInitStruct, FLASH_LATENCY_2) != HAL_OK)
 235:Src/main.c    ****   {
 236:Src/main.c    ****     _Error_Handler(__FILE__, __LINE__);
 237:Src/main.c    ****   }
 238:Src/main.c    **** 
 239:Src/main.c    ****     /**Configure the Systick interrupt time 
 240:Src/main.c    ****     */
 241:Src/main.c    ****   HAL_SYSTICK_Config(HAL_RCC_GetHCLKFreq()/1000);
 242:Src/main.c    **** 
 243:Src/main.c    ****     /**Configure the Systick 
 244:Src/main.c    ****     */
 245:Src/main.c    ****   HAL_SYSTICK_CLKSourceConfig(SYSTICK_CLKSOURCE_HCLK);
 246:Src/main.c    **** 
 247:Src/main.c    ****   /* SysTick_IRQn interrupt configuration */
 248:Src/main.c    ****   HAL_NVIC_SetPriority(SysTick_IRQn, 15, 0);
 249:Src/main.c    **** }
 250:Src/main.c    **** 
 251:Src/main.c    **** /**
 252:Src/main.c    ****   * @brief NVIC Configuration.
 253:Src/main.c    ****   * @retval None
 254:Src/main.c    ****   */
 255:Src/main.c    **** static void MX_NVIC_Init(void)
 256:Src/main.c    **** {
 257:Src/main.c    ****   /* USART1_IRQn interrupt configuration */
 258:Src/main.c    ****   HAL_NVIC_SetPriority(USART1_IRQn, 6, 0);
 259:Src/main.c    ****   HAL_NVIC_EnableIRQ(USART1_IRQn);
 260:Src/main.c    ****   /* USART2_IRQn interrupt configuration */
ARM GAS  /tmp/cc2OYtPb.s 			page 6


 261:Src/main.c    ****   HAL_NVIC_SetPriority(USART2_IRQn, 5, 0);
 262:Src/main.c    ****   HAL_NVIC_EnableIRQ(USART2_IRQn);
 263:Src/main.c    ****   /* USART3_IRQn interrupt configuration */
 264:Src/main.c    ****   HAL_NVIC_SetPriority(USART3_IRQn, 7, 0);
 265:Src/main.c    ****   HAL_NVIC_EnableIRQ(USART3_IRQn);
 266:Src/main.c    ****   /* DMA1_Channel6_IRQn interrupt configuration */
 267:Src/main.c    ****   HAL_NVIC_SetPriority(DMA1_Channel6_IRQn, 5, 0);
 268:Src/main.c    ****   HAL_NVIC_EnableIRQ(DMA1_Channel6_IRQn);
 269:Src/main.c    **** }
 270:Src/main.c    **** 
 271:Src/main.c    **** /* CAN init function */
 272:Src/main.c    **** static void MX_CAN_Init(void)
 273:Src/main.c    **** {
 274:Src/main.c    **** 
 275:Src/main.c    ****   hcan.Instance = CAN1;
 276:Src/main.c    ****   hcan.Init.Prescaler = 18;
 277:Src/main.c    ****   hcan.Init.Mode = CAN_MODE_NORMAL;
 278:Src/main.c    ****   hcan.Init.SJW = CAN_SJW_1TQ;
 279:Src/main.c    ****   hcan.Init.BS1 = CAN_BS1_7TQ;
 280:Src/main.c    ****   hcan.Init.BS2 = CAN_BS2_8TQ;
 281:Src/main.c    ****   hcan.Init.TTCM = DISABLE;
 282:Src/main.c    ****   hcan.Init.ABOM = DISABLE;
 283:Src/main.c    ****   hcan.Init.AWUM = DISABLE;
 284:Src/main.c    ****   hcan.Init.NART = DISABLE;
 285:Src/main.c    ****   hcan.Init.RFLM = DISABLE;
 286:Src/main.c    ****   hcan.Init.TXFP = DISABLE;
 287:Src/main.c    ****   if (HAL_CAN_Init(&hcan) != HAL_OK)
 288:Src/main.c    ****   {
 289:Src/main.c    ****     _Error_Handler(__FILE__, __LINE__);
 290:Src/main.c    ****   }
 291:Src/main.c    **** 
 292:Src/main.c    **** }
 293:Src/main.c    **** 
 294:Src/main.c    **** /* USART1 init function */
 295:Src/main.c    **** static void MX_USART1_UART_Init(void)
 296:Src/main.c    **** {
 297:Src/main.c    **** 
 298:Src/main.c    ****   huart1.Instance = USART1;
 299:Src/main.c    ****   huart1.Init.BaudRate = 115200;
 300:Src/main.c    ****   huart1.Init.WordLength = UART_WORDLENGTH_8B;
 301:Src/main.c    ****   huart1.Init.StopBits = UART_STOPBITS_1;
 302:Src/main.c    ****   huart1.Init.Parity = UART_PARITY_NONE;
 303:Src/main.c    ****   huart1.Init.Mode = UART_MODE_TX_RX;
 304:Src/main.c    ****   huart1.Init.HwFlowCtl = UART_HWCONTROL_NONE;
 305:Src/main.c    ****   huart1.Init.OverSampling = UART_OVERSAMPLING_16;
 306:Src/main.c    ****   if (HAL_UART_Init(&huart1) != HAL_OK)
 307:Src/main.c    ****   {
 308:Src/main.c    ****     _Error_Handler(__FILE__, __LINE__);
 309:Src/main.c    ****   }
 310:Src/main.c    **** 
 311:Src/main.c    **** }
 312:Src/main.c    **** 
 313:Src/main.c    **** /* USART2 init function */
 314:Src/main.c    **** static void MX_USART2_UART_Init(void)
 315:Src/main.c    **** {
 316:Src/main.c    **** 
 317:Src/main.c    ****   huart2.Instance = USART2;
ARM GAS  /tmp/cc2OYtPb.s 			page 7


 318:Src/main.c    ****   huart2.Init.BaudRate = 115200;
 319:Src/main.c    ****   huart2.Init.WordLength = UART_WORDLENGTH_8B;
 320:Src/main.c    ****   huart2.Init.StopBits = UART_STOPBITS_1;
 321:Src/main.c    ****   huart2.Init.Parity = UART_PARITY_NONE;
 322:Src/main.c    ****   huart2.Init.Mode = UART_MODE_TX_RX;
 323:Src/main.c    ****   huart2.Init.HwFlowCtl = UART_HWCONTROL_NONE;
 324:Src/main.c    ****   huart2.Init.OverSampling = UART_OVERSAMPLING_16;
 325:Src/main.c    ****   if (HAL_UART_Init(&huart2) != HAL_OK)
 326:Src/main.c    ****   {
 327:Src/main.c    ****     _Error_Handler(__FILE__, __LINE__);
 328:Src/main.c    ****   }
 329:Src/main.c    **** 
 330:Src/main.c    **** }
 331:Src/main.c    **** 
 332:Src/main.c    **** /* USART3 init function */
 333:Src/main.c    **** static void MX_USART3_UART_Init(void)
 334:Src/main.c    **** {
 335:Src/main.c    **** 
 336:Src/main.c    ****   huart3.Instance = USART3;
 337:Src/main.c    ****   huart3.Init.BaudRate = 115200;
 338:Src/main.c    ****   huart3.Init.WordLength = UART_WORDLENGTH_8B;
 339:Src/main.c    ****   huart3.Init.StopBits = UART_STOPBITS_1;
 340:Src/main.c    ****   huart3.Init.Parity = UART_PARITY_NONE;
 341:Src/main.c    ****   huart3.Init.Mode = UART_MODE_TX_RX;
 342:Src/main.c    ****   huart3.Init.HwFlowCtl = UART_HWCONTROL_NONE;
 343:Src/main.c    ****   huart3.Init.OverSampling = UART_OVERSAMPLING_16;
 344:Src/main.c    ****   if (HAL_UART_Init(&huart3) != HAL_OK)
 345:Src/main.c    ****   {
 346:Src/main.c    ****     _Error_Handler(__FILE__, __LINE__);
 347:Src/main.c    ****   }
 348:Src/main.c    **** 
 349:Src/main.c    **** }
 350:Src/main.c    **** 
 351:Src/main.c    **** /** 
 352:Src/main.c    ****   * Enable DMA controller clock
 353:Src/main.c    ****   */
 354:Src/main.c    **** static void MX_DMA_Init(void) 
 355:Src/main.c    **** {
  27              		.loc 1 355 0
  28              		.cfi_startproc
  29              		@ args = 0, pretend = 0, frame = 8
  30              		@ frame_needed = 0, uses_anonymous_args = 0
  31              		@ link register save eliminated.
  32 0000 82B0     		sub	sp, sp, #8
  33              	.LCFI0:
  34              		.cfi_def_cfa_offset 8
  35              	.LBB2:
 356:Src/main.c    ****   /* DMA controller clock enable */
 357:Src/main.c    ****   __HAL_RCC_DMA1_CLK_ENABLE();
  36              		.loc 1 357 0
  37 0002 064B     		ldr	r3, .L3
  38 0004 5A69     		ldr	r2, [r3, #20]
  39 0006 42F00102 		orr	r2, r2, #1
  40 000a 5A61     		str	r2, [r3, #20]
  41 000c 5B69     		ldr	r3, [r3, #20]
  42 000e 03F00103 		and	r3, r3, #1
  43 0012 0193     		str	r3, [sp, #4]
ARM GAS  /tmp/cc2OYtPb.s 			page 8


  44 0014 019B     		ldr	r3, [sp, #4]
  45              	.LBE2:
 358:Src/main.c    **** 
 359:Src/main.c    **** }
  46              		.loc 1 359 0
  47 0016 02B0     		add	sp, sp, #8
  48              	.LCFI1:
  49              		.cfi_def_cfa_offset 0
  50              		@ sp needed
  51 0018 7047     		bx	lr
  52              	.L4:
  53 001a 00BF     		.align	2
  54              	.L3:
  55 001c 00100240 		.word	1073876992
  56              		.cfi_endproc
  57              	.LFE76:
  59              		.section	.text.MX_GPIO_Init,"ax",%progbits
  60              		.align	2
  61              		.thumb
  62              		.thumb_func
  64              	MX_GPIO_Init:
  65              	.LFB77:
 360:Src/main.c    **** 
 361:Src/main.c    **** /** Configure pins as 
 362:Src/main.c    ****         * Analog 
 363:Src/main.c    ****         * Input 
 364:Src/main.c    ****         * Output
 365:Src/main.c    ****         * EVENT_OUT
 366:Src/main.c    ****         * EXTI
 367:Src/main.c    **** */
 368:Src/main.c    **** static void MX_GPIO_Init(void)
 369:Src/main.c    **** {
  66              		.loc 1 369 0
  67              		.cfi_startproc
  68              		@ args = 0, pretend = 0, frame = 32
  69              		@ frame_needed = 0, uses_anonymous_args = 0
  70 0000 10B5     		push	{r4, lr}
  71              	.LCFI2:
  72              		.cfi_def_cfa_offset 8
  73              		.cfi_offset 4, -8
  74              		.cfi_offset 14, -4
  75 0002 88B0     		sub	sp, sp, #32
  76              	.LCFI3:
  77              		.cfi_def_cfa_offset 40
  78              	.LBB3:
 370:Src/main.c    **** 
 371:Src/main.c    ****   GPIO_InitTypeDef GPIO_InitStruct;
 372:Src/main.c    **** 
 373:Src/main.c    ****   /* GPIO Ports Clock Enable */
 374:Src/main.c    ****   __HAL_RCC_GPIOC_CLK_ENABLE();
  79              		.loc 1 374 0
  80 0004 174B     		ldr	r3, .L7
  81 0006 9A69     		ldr	r2, [r3, #24]
  82 0008 42F01002 		orr	r2, r2, #16
  83 000c 9A61     		str	r2, [r3, #24]
  84 000e 9A69     		ldr	r2, [r3, #24]
  85 0010 02F01002 		and	r2, r2, #16
ARM GAS  /tmp/cc2OYtPb.s 			page 9


  86 0014 0192     		str	r2, [sp, #4]
  87 0016 019A     		ldr	r2, [sp, #4]
  88              	.LBE3:
  89              	.LBB4:
 375:Src/main.c    ****   __HAL_RCC_GPIOA_CLK_ENABLE();
  90              		.loc 1 375 0
  91 0018 9A69     		ldr	r2, [r3, #24]
  92 001a 42F00402 		orr	r2, r2, #4
  93 001e 9A61     		str	r2, [r3, #24]
  94 0020 9A69     		ldr	r2, [r3, #24]
  95 0022 02F00402 		and	r2, r2, #4
  96 0026 0292     		str	r2, [sp, #8]
  97 0028 029A     		ldr	r2, [sp, #8]
  98              	.LBE4:
  99              	.LBB5:
 376:Src/main.c    ****   __HAL_RCC_GPIOB_CLK_ENABLE();
 100              		.loc 1 376 0
 101 002a 9A69     		ldr	r2, [r3, #24]
 102 002c 42F00802 		orr	r2, r2, #8
 103 0030 9A61     		str	r2, [r3, #24]
 104 0032 9B69     		ldr	r3, [r3, #24]
 105 0034 03F00803 		and	r3, r3, #8
 106 0038 0393     		str	r3, [sp, #12]
 107 003a 039B     		ldr	r3, [sp, #12]
 108              	.LBE5:
 377:Src/main.c    **** 
 378:Src/main.c    ****   /*Configure GPIO pin Output Level */
 379:Src/main.c    ****   HAL_GPIO_WritePin(GPIOC, LED1_Pin|LED2_Pin|LED3_Pin, GPIO_PIN_RESET);
 109              		.loc 1 379 0
 110 003c 0A4C     		ldr	r4, .L7+4
 111 003e 0022     		movs	r2, #0
 112 0040 3821     		movs	r1, #56
 113 0042 2046     		mov	r0, r4
 114 0044 FFF7FEFF 		bl	HAL_GPIO_WritePin
 115              	.LVL0:
 380:Src/main.c    **** 
 381:Src/main.c    ****   /*Configure GPIO pins : LED1_Pin LED2_Pin LED3_Pin */
 382:Src/main.c    ****   GPIO_InitStruct.Pin = LED1_Pin|LED2_Pin|LED3_Pin;
 116              		.loc 1 382 0
 117 0048 3823     		movs	r3, #56
 118 004a 0493     		str	r3, [sp, #16]
 383:Src/main.c    ****   GPIO_InitStruct.Mode = GPIO_MODE_OUTPUT_PP;
 119              		.loc 1 383 0
 120 004c 0123     		movs	r3, #1
 121 004e 0593     		str	r3, [sp, #20]
 384:Src/main.c    ****   GPIO_InitStruct.Pull = GPIO_NOPULL;
 122              		.loc 1 384 0
 123 0050 0023     		movs	r3, #0
 124 0052 0693     		str	r3, [sp, #24]
 385:Src/main.c    ****   GPIO_InitStruct.Speed = GPIO_SPEED_FREQ_LOW;
 125              		.loc 1 385 0
 126 0054 0223     		movs	r3, #2
 127 0056 0793     		str	r3, [sp, #28]
 386:Src/main.c    ****   HAL_GPIO_Init(GPIOC, &GPIO_InitStruct);
 128              		.loc 1 386 0
 129 0058 04A9     		add	r1, sp, #16
 130 005a 2046     		mov	r0, r4
ARM GAS  /tmp/cc2OYtPb.s 			page 10


 131 005c FFF7FEFF 		bl	HAL_GPIO_Init
 132              	.LVL1:
 387:Src/main.c    **** 
 388:Src/main.c    **** }
 133              		.loc 1 388 0
 134 0060 08B0     		add	sp, sp, #32
 135              	.LCFI4:
 136              		.cfi_def_cfa_offset 8
 137              		@ sp needed
 138 0062 10BD     		pop	{r4, pc}
 139              	.L8:
 140              		.align	2
 141              	.L7:
 142 0064 00100240 		.word	1073876992
 143 0068 00100140 		.word	1073811456
 144              		.cfi_endproc
 145              	.LFE77:
 147              		.section	.text.MX_NVIC_Init,"ax",%progbits
 148              		.align	2
 149              		.thumb
 150              		.thumb_func
 152              	MX_NVIC_Init:
 153              	.LFB71:
 256:Src/main.c    ****   /* USART1_IRQn interrupt configuration */
 154              		.loc 1 256 0
 155              		.cfi_startproc
 156              		@ args = 0, pretend = 0, frame = 0
 157              		@ frame_needed = 0, uses_anonymous_args = 0
 158 0000 08B5     		push	{r3, lr}
 159              	.LCFI5:
 160              		.cfi_def_cfa_offset 8
 161              		.cfi_offset 3, -8
 162              		.cfi_offset 14, -4
 258:Src/main.c    ****   HAL_NVIC_EnableIRQ(USART1_IRQn);
 163              		.loc 1 258 0
 164 0002 0022     		movs	r2, #0
 165 0004 0621     		movs	r1, #6
 166 0006 2520     		movs	r0, #37
 167 0008 FFF7FEFF 		bl	HAL_NVIC_SetPriority
 168              	.LVL2:
 259:Src/main.c    ****   /* USART2_IRQn interrupt configuration */
 169              		.loc 1 259 0
 170 000c 2520     		movs	r0, #37
 171 000e FFF7FEFF 		bl	HAL_NVIC_EnableIRQ
 172              	.LVL3:
 261:Src/main.c    ****   HAL_NVIC_EnableIRQ(USART2_IRQn);
 173              		.loc 1 261 0
 174 0012 0022     		movs	r2, #0
 175 0014 0521     		movs	r1, #5
 176 0016 2620     		movs	r0, #38
 177 0018 FFF7FEFF 		bl	HAL_NVIC_SetPriority
 178              	.LVL4:
 262:Src/main.c    ****   /* USART3_IRQn interrupt configuration */
 179              		.loc 1 262 0
 180 001c 2620     		movs	r0, #38
 181 001e FFF7FEFF 		bl	HAL_NVIC_EnableIRQ
 182              	.LVL5:
ARM GAS  /tmp/cc2OYtPb.s 			page 11


 264:Src/main.c    ****   HAL_NVIC_EnableIRQ(USART3_IRQn);
 183              		.loc 1 264 0
 184 0022 0022     		movs	r2, #0
 185 0024 0721     		movs	r1, #7
 186 0026 2720     		movs	r0, #39
 187 0028 FFF7FEFF 		bl	HAL_NVIC_SetPriority
 188              	.LVL6:
 265:Src/main.c    ****   /* DMA1_Channel6_IRQn interrupt configuration */
 189              		.loc 1 265 0
 190 002c 2720     		movs	r0, #39
 191 002e FFF7FEFF 		bl	HAL_NVIC_EnableIRQ
 192              	.LVL7:
 267:Src/main.c    ****   HAL_NVIC_EnableIRQ(DMA1_Channel6_IRQn);
 193              		.loc 1 267 0
 194 0032 0022     		movs	r2, #0
 195 0034 0521     		movs	r1, #5
 196 0036 1020     		movs	r0, #16
 197 0038 FFF7FEFF 		bl	HAL_NVIC_SetPriority
 198              	.LVL8:
 268:Src/main.c    **** }
 199              		.loc 1 268 0
 200 003c 1020     		movs	r0, #16
 201 003e FFF7FEFF 		bl	HAL_NVIC_EnableIRQ
 202              	.LVL9:
 203 0042 08BD     		pop	{r3, pc}
 204              		.cfi_endproc
 205              	.LFE71:
 207              		.section	.text.Func_Task1,"ax",%progbits
 208              		.align	2
 209              		.global	Func_Task1
 210              		.thumb
 211              		.thumb_func
 213              	Func_Task1:
 214              	.LFB80:
 389:Src/main.c    **** 
 390:Src/main.c    **** /* USER CODE BEGIN 4 */
 391:Src/main.c    **** /*
 392:Src/main.c    **** void HAL_UART_RxCpltCallback(UART_HandleTypeDef *huart)
 393:Src/main.c    **** {
 394:Src/main.c    ****   if(huart->Instance == USART2)
 395:Src/main.c    ****   {
 396:Src/main.c    **** 	HAL_UART_Transmit(&huart3,aRxBuffer2,1,100);	// æ¥æ”¶åˆ°æ•°æ®é©¬ä¸Šä½¿ç”¨ä¸²å£3å‘é€å‡ºå»
 397:Src/main.c    ****     // aRxBuffer2_Data[aRxBuffer2_Data_Index] = aRxBuffer2[1];
 398:Src/main.c    ****     // aRxBuffer2_Data_Index++;
 399:Src/main.c    ****     // if (aRxBuffer2_Data_Index == 3)
 400:Src/main.c    ****     // { 
 401:Src/main.c    ****     //   aRxBuffer2_Data_flag = 1; 
 402:Src/main.c    ****     //   aRxBuffer2_Data_Index = 0;
 403:Src/main.c    ****     // }
 404:Src/main.c    **** 	HAL_UART_Receive_IT(&huart2,aRxBuffer2,1);		// é‡æ–°ä½¿èƒ½ä¸²å£2æ¥æ”¶ä¸­æ–­
 405:Src/main.c    ****   }
 406:Src/main.c    **** }
 407:Src/main.c    **** */
 408:Src/main.c    **** 
 409:Src/main.c    **** void uartdamget(void)
 410:Src/main.c    **** {
 411:Src/main.c    ****   uint8_t temp[1];
ARM GAS  /tmp/cc2OYtPb.s 			page 12


 412:Src/main.c    ****   // uint8_t temp_before[1];
 413:Src/main.c    ****   HAL_GPIO_WritePin(LED1_GPIO_Port, LED1_Pin, GPIO_PIN_RESET);
 414:Src/main.c    **** 
 415:Src/main.c    ****   if(recv_end_flag ==1)
 416:Src/main.c    ****   {
 417:Src/main.c    **** 
 418:Src/main.c    ****  	for(int i=0;i<Rx_len;i++)
 419:Src/main.c    **** 	{
 420:Src/main.c    **** 	  /*æ‰“å°æ¥æ”¶åˆ°çš„æ•°æ®*/
 421:Src/main.c    **** 	  sprintf(temp,"%c",ReceiveBuff[i]);
 422:Src/main.c    ****       HAL_UART_Transmit(&huart3,temp,1,10);
 423:Src/main.c    **** 
 424:Src/main.c    ****       // hcan.pTxMsg -> Data[0] = 0xEF;
 425:Src/main.c    **** 	  // hcan.pTxMsg -> Data[1] = 0xFE;    // æ›¿æ¢CANçš„å‘é€æ•°æ®ï¼Œæš‚æ—¶ç”¨æ¥æµ‹è¯•
 426:Src/main.c    ****       // HAL_CAN_Transmit(&hcan, 10);      // ç”¨CANå£æŠŠæ•°æ®å‘å‡ºå»
 427:Src/main.c    **** 	}
 428:Src/main.c    **** 
 429:Src/main.c    ****     if (ReceiveBuff[Rx_len-1] == 'T' && ReceiveBuff[Rx_len - 2] == 'A' && ReceiveBuff[Rx_len - 3] =
 430:Src/main.c    ****     {
 431:Src/main.c    ****       HAL_UART_Transmit(&huart3,"\r\nCorrect",9,10);
 432:Src/main.c    ****       hcan.pTxMsg -> Data[0] = ReceiveBuff[Rx_len - 7] - 0x30;// ASC iiæ•°å­—è½¬åè¿›åˆ¶æ•°å­—
 433:Src/main.c    **** 	  hcan.pTxMsg -> Data[1] = ReceiveBuff[Rx_len - 6] - 0x30;    // æ›¿æ¢CANçš„å‘é€æ•°æ®ï¼Œæš‚æ—¶
 434:Src/main.c    ****       HAL_CAN_Transmit(&hcan, 10);      // ç”¨CANå£æŠŠæ•°æ®å‘å‡ºå»,è¿˜æ˜¯å¾—ä¼ ä¸¤æ¬¡é‚£è¾¹æ‰è
 435:Src/main.c    ****       HAL_CAN_Transmit(&hcan, 10);
 436:Src/main.c    ****     }
 437:Src/main.c    **** 
 438:Src/main.c    **** 	HAL_UART_Transmit(&huart3,"\r\n",2,10);         
 439:Src/main.c    **** 	/*æ¸…ç©ºæ¥æ”¶ç¼“å­˜åŒº*/
 440:Src/main.c    ****     for(int i = 0; i < Rx_len ; i++)
 441:Src/main.c    **** 	  ReceiveBuff[i]=0;
 442:Src/main.c    **** 	/*æ¥æ”¶æ•°æ®é•¿åº¦æ¸…é›¶*/
 443:Src/main.c    **** 	Rx_len=0;
 444:Src/main.c    **** 	recv_end_flag=0;
 445:Src/main.c    ****   }
 446:Src/main.c    ****   /*å¼€å¯ä¸‹ä¸€æ¬¡æ¥æ”¶*/
 447:Src/main.c    ****   HAL_UART_Receive_DMA(&huart2,(uint8_t*)ReceiveBuff,BUFFERSIZE);    // æ³¨æ„è¿™é‡Œä¸€å®šè¦é‡æ–°
 448:Src/main.c    **** 
 449:Src/main.c    ****   HAL_GPIO_WritePin(LED1_GPIO_Port, LED1_Pin, GPIO_PIN_SET);
 450:Src/main.c    **** }
 451:Src/main.c    **** /* USER CODE END 4 */
 452:Src/main.c    **** 
 453:Src/main.c    **** /* Func_Task0 function */
 454:Src/main.c    **** void Func_Task0(void const * argument)
 455:Src/main.c    **** {
 456:Src/main.c    **** 
 457:Src/main.c    ****   /* USER CODE BEGIN 5 */
 458:Src/main.c    ****   hcan.pTxMsg = &TxMessage;    // hc.pTxMsg æŒ‰ TxMessageæ ¼å¼
 459:Src/main.c    ****   
 460:Src/main.c    ****   HAL_UART_Transmit(&huart1,"\r\nFunc_Task0\r\n",14,10);
 461:Src/main.c    ****   
 462:Src/main.c    ****   
 463:Src/main.c    ****   hcan.pTxMsg -> ExtId = 0x1314;
 464:Src/main.c    ****   hcan.pTxMsg -> RTR = CAN_RTR_DATA;
 465:Src/main.c    ****   hcan.pTxMsg -> IDE = CAN_ID_EXT;
 466:Src/main.c    ****   hcan.pTxMsg -> DLC = 2;
 467:Src/main.c    ****   hcan.pTxMsg -> Data[0] = 0xAB;
 468:Src/main.c    ****   hcan.pTxMsg -> Data[1] = 0xCD;
ARM GAS  /tmp/cc2OYtPb.s 			page 13


 469:Src/main.c    **** 
 470:Src/main.c    ****   // ä¸ºä»€ä¹ˆä¼ 2æ¬¡é‚£è¾¹CAN_rxæ‰èƒ½æ”¶åˆ°
 471:Src/main.c    ****   HAL_CAN_Transmit(&hcan, 10);  // æ³¨æ„ç¬¬äºŒä¸ªå‚æ•°æ˜¯timeoutï¼Œä¸å¸¸è§„åº“å‡½æ•°ä¸åŒ
 472:Src/main.c    ****   HAL_CAN_Transmit(&hcan, 10);
 473:Src/main.c    ****   /* Infinite loop */
 474:Src/main.c    ****   for(;;)
 475:Src/main.c    ****   {
 476:Src/main.c    ****     // osDelay(1000);
 477:Src/main.c    ****     // HAL_GPIO_WritePin(LED1_GPIO_Port, LED1_Pin, GPIO_PIN_RESET);
 478:Src/main.c    ****     // HAL_CAN_Transmit(&hcan, 10);
 479:Src/main.c    **** 
 480:Src/main.c    ****     // osDelay(1000);
 481:Src/main.c    ****     // HAL_GPIO_WritePin(LED1_GPIO_Port, LED1_Pin, GPIO_PIN_SET);
 482:Src/main.c    ****     // HAL_CAN_Transmit(&hcan, 10);
 483:Src/main.c    **** 
 484:Src/main.c    ****     uartdamget();
 485:Src/main.c    ****   }
 486:Src/main.c    ****   /* USER CODE END 5 */ 
 487:Src/main.c    **** }
 488:Src/main.c    **** 
 489:Src/main.c    **** /* Func_Task1 function */
 490:Src/main.c    **** void Func_Task1(void const * argument)
 491:Src/main.c    **** {
 215              		.loc 1 491 0
 216              		.cfi_startproc
 217              		@ Volatile: function does not return.
 218              		@ args = 0, pretend = 0, frame = 0
 219              		@ frame_needed = 0, uses_anonymous_args = 0
 220              	.LVL10:
 221 0000 08B5     		push	{r3, lr}
 222              	.LCFI6:
 223              		.cfi_def_cfa_offset 8
 224              		.cfi_offset 3, -8
 225              		.cfi_offset 14, -4
 492:Src/main.c    ****   /* USER CODE BEGIN Func_Task1 */
 493:Src/main.c    ****   HAL_UART_Receive_IT(&huart2,aRxBuffer2,1);
 226              		.loc 1 493 0
 227 0002 264C     		ldr	r4, .L14
 228 0004 0122     		movs	r2, #1
 229 0006 2649     		ldr	r1, .L14+4
 230 0008 2046     		mov	r0, r4
 231              	.LVL11:
 232 000a FFF7FEFF 		bl	HAL_UART_Receive_IT
 233              	.LVL12:
 494:Src/main.c    ****   HAL_UART_Transmit(&huart3,"\r\nFunc_Task1\r\n",14,10);
 234              		.loc 1 494 0
 235 000e 254D     		ldr	r5, .L14+8
 236 0010 0A23     		movs	r3, #10
 237 0012 0E22     		movs	r2, #14
 238 0014 2449     		ldr	r1, .L14+12
 239 0016 2846     		mov	r0, r5
 240 0018 FFF7FEFF 		bl	HAL_UART_Transmit
 241              	.LVL13:
 495:Src/main.c    ****   
 496:Src/main.c    ****   HAL_UART_Transmit(&huart2,"AT+CWMODE=2\r\n",13,10);
 242              		.loc 1 496 0
 243 001c 0A23     		movs	r3, #10
ARM GAS  /tmp/cc2OYtPb.s 			page 14


 244 001e 0D22     		movs	r2, #13
 245 0020 2249     		ldr	r1, .L14+16
 246 0022 2046     		mov	r0, r4
 247 0024 FFF7FEFF 		bl	HAL_UART_Transmit
 248              	.LVL14:
 497:Src/main.c    ****   osDelay(5000);
 249              		.loc 1 497 0
 250 0028 41F28830 		movw	r0, #5000
 251 002c FFF7FEFF 		bl	osDelay
 252              	.LVL15:
 498:Src/main.c    ****   HAL_UART_Transmit(&huart2,"AT+RST\r\n",8,10);
 253              		.loc 1 498 0
 254 0030 0A23     		movs	r3, #10
 255 0032 0822     		movs	r2, #8
 256 0034 1E49     		ldr	r1, .L14+20
 257 0036 2046     		mov	r0, r4
 258 0038 FFF7FEFF 		bl	HAL_UART_Transmit
 259              	.LVL16:
 499:Src/main.c    ****   osDelay(10000);
 260              		.loc 1 499 0
 261 003c 42F21070 		movw	r0, #10000
 262 0040 FFF7FEFF 		bl	osDelay
 263              	.LVL17:
 500:Src/main.c    ****   HAL_UART_Transmit(&huart2,"AT+CWSAP=\"PYY_8266\",\"12345678\",6,4\r\n",36,10);
 264              		.loc 1 500 0
 265 0044 0A23     		movs	r3, #10
 266 0046 2422     		movs	r2, #36
 267 0048 1A49     		ldr	r1, .L14+24
 268 004a 2046     		mov	r0, r4
 269 004c FFF7FEFF 		bl	HAL_UART_Transmit
 270              	.LVL18:
 501:Src/main.c    ****   osDelay(50);
 271              		.loc 1 501 0
 272 0050 3220     		movs	r0, #50
 273 0052 FFF7FEFF 		bl	osDelay
 274              	.LVL19:
 502:Src/main.c    ****   HAL_UART_Transmit(&huart2,"AT+CIPMUX=1\r\n",13,10);
 275              		.loc 1 502 0
 276 0056 0A23     		movs	r3, #10
 277 0058 0D22     		movs	r2, #13
 278 005a 1749     		ldr	r1, .L14+28
 279 005c 2046     		mov	r0, r4
 280 005e FFF7FEFF 		bl	HAL_UART_Transmit
 281              	.LVL20:
 503:Src/main.c    ****   osDelay(50);
 282              		.loc 1 503 0
 283 0062 3220     		movs	r0, #50
 284 0064 FFF7FEFF 		bl	osDelay
 285              	.LVL21:
 504:Src/main.c    ****   HAL_UART_Transmit(&huart2,"AT+CIPSERVER=1,333\r\n",20,10);
 286              		.loc 1 504 0
 287 0068 0A23     		movs	r3, #10
 288 006a 1422     		movs	r2, #20
 289 006c 1349     		ldr	r1, .L14+32
 290 006e 2046     		mov	r0, r4
 291 0070 FFF7FEFF 		bl	HAL_UART_Transmit
 292              	.LVL22:
ARM GAS  /tmp/cc2OYtPb.s 			page 15


 505:Src/main.c    ****   osDelay(10000);
 293              		.loc 1 505 0
 294 0074 42F21070 		movw	r0, #10000
 295 0078 FFF7FEFF 		bl	osDelay
 296              	.LVL23:
 506:Src/main.c    ****   HAL_UART_Transmit(&huart2,"AT+CIFSR\r\n",10,10);
 297              		.loc 1 506 0
 298 007c 0A23     		movs	r3, #10
 299 007e 1A46     		mov	r2, r3
 300 0080 0F49     		ldr	r1, .L14+36
 301 0082 2046     		mov	r0, r4
 302 0084 FFF7FEFF 		bl	HAL_UART_Transmit
 303              	.LVL24:
 507:Src/main.c    ****   osDelay(50);
 304              		.loc 1 507 0
 305 0088 3220     		movs	r0, #50
 306 008a FFF7FEFF 		bl	osDelay
 307              	.LVL25:
 508:Src/main.c    ****   
 509:Src/main.c    ****   HAL_UART_Transmit(&huart3,"\r\nFINISHED\r\n",12,10);
 308              		.loc 1 509 0
 309 008e 0A23     		movs	r3, #10
 310 0090 0C22     		movs	r2, #12
 311 0092 0C49     		ldr	r1, .L14+40
 312 0094 2846     		mov	r0, r5
 313 0096 FFF7FEFF 		bl	HAL_UART_Transmit
 314              	.LVL26:
 315              	.L12:
 316 009a FEE7     		b	.L12
 317              	.L15:
 318              		.align	2
 319              	.L14:
 320 009c 00000000 		.word	huart2
 321 00a0 00000000 		.word	aRxBuffer2
 322 00a4 00000000 		.word	huart3
 323 00a8 00000000 		.word	.LC4
 324 00ac 10000000 		.word	.LC5
 325 00b0 20000000 		.word	.LC6
 326 00b4 2C000000 		.word	.LC7
 327 00b8 54000000 		.word	.LC8
 328 00bc 64000000 		.word	.LC9
 329 00c0 7C000000 		.word	.LC10
 330 00c4 88000000 		.word	.LC11
 331              		.cfi_endproc
 332              	.LFE80:
 334              		.section	.text.uartdamget,"ax",%progbits
 335              		.align	2
 336              		.global	uartdamget
 337              		.thumb
 338              		.thumb_func
 340              	uartdamget:
 341              	.LFB78:
 410:Src/main.c    ****   uint8_t temp[1];
 342              		.loc 1 410 0
 343              		.cfi_startproc
 344              		@ args = 0, pretend = 0, frame = 8
 345              		@ frame_needed = 0, uses_anonymous_args = 0
ARM GAS  /tmp/cc2OYtPb.s 			page 16


 346 0000 10B5     		push	{r4, lr}
 347              	.LCFI7:
 348              		.cfi_def_cfa_offset 8
 349              		.cfi_offset 4, -8
 350              		.cfi_offset 14, -4
 351 0002 82B0     		sub	sp, sp, #8
 352              	.LCFI8:
 353              		.cfi_def_cfa_offset 16
 413:Src/main.c    **** 
 354              		.loc 1 413 0
 355 0004 0022     		movs	r2, #0
 356 0006 0821     		movs	r1, #8
 357 0008 3648     		ldr	r0, .L25
 358 000a FFF7FEFF 		bl	HAL_GPIO_WritePin
 359              	.LVL27:
 415:Src/main.c    ****   {
 360              		.loc 1 415 0
 361 000e 364B     		ldr	r3, .L25+4
 362 0010 1B78     		ldrb	r3, [r3]	@ zero_extendqisi2
 363 0012 012B     		cmp	r3, #1
 364 0014 59D1     		bne	.L18
 365 0016 0DE0     		b	.L23
 366              	.LVL28:
 367              	.L19:
 368              	.LBB6:
 421:Src/main.c    ****       HAL_UART_Transmit(&huart3,temp,1,10);
 369              		.loc 1 421 0 discriminator 3
 370 0018 344B     		ldr	r3, .L25+8
 371 001a 1A5D     		ldrb	r2, [r3, r4]	@ zero_extendqisi2
 372 001c 3449     		ldr	r1, .L25+12
 373 001e 01A8     		add	r0, sp, #4
 374 0020 FFF7FEFF 		bl	sprintf
 375              	.LVL29:
 422:Src/main.c    **** 
 376              		.loc 1 422 0 discriminator 3
 377 0024 0A23     		movs	r3, #10
 378 0026 0122     		movs	r2, #1
 379 0028 01A9     		add	r1, sp, #4
 380 002a 3248     		ldr	r0, .L25+16
 381 002c FFF7FEFF 		bl	HAL_UART_Transmit
 382              	.LVL30:
 418:Src/main.c    **** 	{
 383              		.loc 1 418 0 discriminator 3
 384 0030 0134     		adds	r4, r4, #1
 385              	.LVL31:
 386 0032 00E0     		b	.L17
 387              	.LVL32:
 388              	.L23:
 389              	.LBE6:
 390 0034 0024     		movs	r4, #0
 391              	.L17:
 392              	.LVL33:
 393              	.LBB7:
 418:Src/main.c    **** 	{
 394              		.loc 1 418 0 is_stmt 0 discriminator 1
 395 0036 304B     		ldr	r3, .L25+20
 396 0038 1B78     		ldrb	r3, [r3]	@ zero_extendqisi2
ARM GAS  /tmp/cc2OYtPb.s 			page 17


 397 003a 9C42     		cmp	r4, r3
 398 003c ECDB     		blt	.L19
 399              	.LBE7:
 429:Src/main.c    ****     {
 400              		.loc 1 429 0 is_stmt 1
 401 003e 5A1E     		subs	r2, r3, #1
 402 0040 2A49     		ldr	r1, .L25+8
 403 0042 8A5C     		ldrb	r2, [r1, r2]	@ zero_extendqisi2
 404 0044 542A     		cmp	r2, #84
 405 0046 2BD1     		bne	.L20
 429:Src/main.c    ****     {
 406              		.loc 1 429 0 is_stmt 0 discriminator 1
 407 0048 9A1E     		subs	r2, r3, #2
 408 004a 8A5C     		ldrb	r2, [r1, r2]	@ zero_extendqisi2
 409 004c 412A     		cmp	r2, #65
 410 004e 27D1     		bne	.L20
 429:Src/main.c    ****     {
 411              		.loc 1 429 0 discriminator 2
 412 0050 DA1E     		subs	r2, r3, #3
 413 0052 8A5C     		ldrb	r2, [r1, r2]	@ zero_extendqisi2
 414 0054 442A     		cmp	r2, #68
 415 0056 23D1     		bne	.L20
 429:Src/main.c    ****     {
 416              		.loc 1 429 0 discriminator 3
 417 0058 1A1F     		subs	r2, r3, #4
 418 005a 8A5C     		ldrb	r2, [r1, r2]	@ zero_extendqisi2
 419 005c 592A     		cmp	r2, #89
 420 005e 1FD1     		bne	.L20
 429:Src/main.c    ****     {
 421              		.loc 1 429 0 discriminator 4
 422 0060 053B     		subs	r3, r3, #5
 423 0062 CB5C     		ldrb	r3, [r1, r3]	@ zero_extendqisi2
 424 0064 4D2B     		cmp	r3, #77
 425 0066 1BD1     		bne	.L20
 431:Src/main.c    ****       hcan.pTxMsg -> Data[0] = ReceiveBuff[Rx_len - 7] - 0x30;// ASC iiæ•°å­—è½¬åè¿›åˆ¶æ•°å­—
 426              		.loc 1 431 0 is_stmt 1
 427 0068 0A23     		movs	r3, #10
 428 006a 0922     		movs	r2, #9
 429 006c 2349     		ldr	r1, .L25+24
 430 006e 2148     		ldr	r0, .L25+16
 431 0070 FFF7FEFF 		bl	HAL_UART_Transmit
 432              	.LVL34:
 432:Src/main.c    **** 	  hcan.pTxMsg -> Data[1] = ReceiveBuff[Rx_len - 6] - 0x30;    // æ›¿æ¢CANçš„å‘é€æ•°æ®ï¼Œæš‚æ—¶
 433              		.loc 1 432 0
 434 0074 224C     		ldr	r4, .L25+28
 435              	.LVL35:
 436 0076 206B     		ldr	r0, [r4, #48]
 437 0078 1F4B     		ldr	r3, .L25+20
 438 007a 1B78     		ldrb	r3, [r3]	@ zero_extendqisi2
 439 007c DA1F     		subs	r2, r3, #7
 440 007e 1B49     		ldr	r1, .L25+8
 441 0080 8A5C     		ldrb	r2, [r1, r2]	@ zero_extendqisi2
 442 0082 303A     		subs	r2, r2, #48
 443 0084 0275     		strb	r2, [r0, #20]
 433:Src/main.c    ****       HAL_CAN_Transmit(&hcan, 10);      // ç”¨CANå£æŠŠæ•°æ®å‘å‡ºå»,è¿˜æ˜¯å¾—ä¼ ä¸¤æ¬¡é‚£è¾¹æ‰è
 444              		.loc 1 433 0
 445 0086 226B     		ldr	r2, [r4, #48]
ARM GAS  /tmp/cc2OYtPb.s 			page 18


 446 0088 063B     		subs	r3, r3, #6
 447 008a CB5C     		ldrb	r3, [r1, r3]	@ zero_extendqisi2
 448 008c 303B     		subs	r3, r3, #48
 449 008e 5375     		strb	r3, [r2, #21]
 434:Src/main.c    ****       HAL_CAN_Transmit(&hcan, 10);
 450              		.loc 1 434 0
 451 0090 0A21     		movs	r1, #10
 452 0092 2046     		mov	r0, r4
 453 0094 FFF7FEFF 		bl	HAL_CAN_Transmit
 454              	.LVL36:
 435:Src/main.c    ****     }
 455              		.loc 1 435 0
 456 0098 0A21     		movs	r1, #10
 457 009a 2046     		mov	r0, r4
 458 009c FFF7FEFF 		bl	HAL_CAN_Transmit
 459              	.LVL37:
 460              	.L20:
 438:Src/main.c    **** 	/*æ¸…ç©ºæ¥æ”¶ç¼“å­˜åŒº*/
 461              		.loc 1 438 0
 462 00a0 0A23     		movs	r3, #10
 463 00a2 0222     		movs	r2, #2
 464 00a4 1749     		ldr	r1, .L25+32
 465 00a6 1348     		ldr	r0, .L25+16
 466 00a8 FFF7FEFF 		bl	HAL_UART_Transmit
 467              	.LVL38:
 468              	.LBB8:
 440:Src/main.c    **** 	  ReceiveBuff[i]=0;
 469              		.loc 1 440 0
 470 00ac 0023     		movs	r3, #0
 471 00ae 03E0     		b	.L21
 472              	.LVL39:
 473              	.L22:
 441:Src/main.c    **** 	/*æ¥æ”¶æ•°æ®é•¿åº¦æ¸…é›¶*/
 474              		.loc 1 441 0 discriminator 3
 475 00b0 0021     		movs	r1, #0
 476 00b2 0E4A     		ldr	r2, .L25+8
 477 00b4 D154     		strb	r1, [r2, r3]
 440:Src/main.c    **** 	  ReceiveBuff[i]=0;
 478              		.loc 1 440 0 discriminator 3
 479 00b6 0133     		adds	r3, r3, #1
 480              	.LVL40:
 481              	.L21:
 440:Src/main.c    **** 	  ReceiveBuff[i]=0;
 482              		.loc 1 440 0 is_stmt 0 discriminator 1
 483 00b8 0F4A     		ldr	r2, .L25+20
 484 00ba 1278     		ldrb	r2, [r2]	@ zero_extendqisi2
 485 00bc 9342     		cmp	r3, r2
 486 00be F7DB     		blt	.L22
 487              	.LBE8:
 443:Src/main.c    **** 	recv_end_flag=0;
 488              		.loc 1 443 0 is_stmt 1
 489 00c0 0023     		movs	r3, #0
 490              	.LVL41:
 491 00c2 0D4A     		ldr	r2, .L25+20
 492 00c4 1370     		strb	r3, [r2]
 444:Src/main.c    ****   }
 493              		.loc 1 444 0
ARM GAS  /tmp/cc2OYtPb.s 			page 19


 494 00c6 084A     		ldr	r2, .L25+4
 495 00c8 1370     		strb	r3, [r2]
 496              	.L18:
 447:Src/main.c    **** 
 497              		.loc 1 447 0
 498 00ca FF22     		movs	r2, #255
 499 00cc 0749     		ldr	r1, .L25+8
 500 00ce 0E48     		ldr	r0, .L25+36
 501 00d0 FFF7FEFF 		bl	HAL_UART_Receive_DMA
 502              	.LVL42:
 449:Src/main.c    **** }
 503              		.loc 1 449 0
 504 00d4 0122     		movs	r2, #1
 505 00d6 0821     		movs	r1, #8
 506 00d8 0248     		ldr	r0, .L25
 507 00da FFF7FEFF 		bl	HAL_GPIO_WritePin
 508              	.LVL43:
 450:Src/main.c    **** /* USER CODE END 4 */
 509              		.loc 1 450 0
 510 00de 02B0     		add	sp, sp, #8
 511              	.LCFI9:
 512              		.cfi_def_cfa_offset 8
 513              		@ sp needed
 514 00e0 10BD     		pop	{r4, pc}
 515              	.L26:
 516 00e2 00BF     		.align	2
 517              	.L25:
 518 00e4 00100140 		.word	1073811456
 519 00e8 00000000 		.word	.LANCHOR0
 520 00ec 00000000 		.word	ReceiveBuff
 521 00f0 98000000 		.word	.LC12
 522 00f4 00000000 		.word	huart3
 523 00f8 00000000 		.word	Rx_len
 524 00fc 9C000000 		.word	.LC13
 525 0100 00000000 		.word	hcan
 526 0104 A8000000 		.word	.LC14
 527 0108 00000000 		.word	huart2
 528              		.cfi_endproc
 529              	.LFE78:
 531              		.section	.text.Func_Task0,"ax",%progbits
 532              		.align	2
 533              		.global	Func_Task0
 534              		.thumb
 535              		.thumb_func
 537              	Func_Task0:
 538              	.LFB79:
 455:Src/main.c    **** 
 539              		.loc 1 455 0
 540              		.cfi_startproc
 541              		@ Volatile: function does not return.
 542              		@ args = 0, pretend = 0, frame = 0
 543              		@ frame_needed = 0, uses_anonymous_args = 0
 544              	.LVL44:
 545 0000 08B5     		push	{r3, lr}
 546              	.LCFI10:
 547              		.cfi_def_cfa_offset 8
 548              		.cfi_offset 3, -8
ARM GAS  /tmp/cc2OYtPb.s 			page 20


 549              		.cfi_offset 14, -4
 458:Src/main.c    ****   
 550              		.loc 1 458 0
 551 0002 134C     		ldr	r4, .L30
 552 0004 134B     		ldr	r3, .L30+4
 553 0006 2363     		str	r3, [r4, #48]
 460:Src/main.c    ****   
 554              		.loc 1 460 0
 555 0008 0A23     		movs	r3, #10
 556 000a 0E22     		movs	r2, #14
 557 000c 1249     		ldr	r1, .L30+8
 558 000e 1348     		ldr	r0, .L30+12
 559              	.LVL45:
 560 0010 FFF7FEFF 		bl	HAL_UART_Transmit
 561              	.LVL46:
 463:Src/main.c    ****   hcan.pTxMsg -> RTR = CAN_RTR_DATA;
 562              		.loc 1 463 0
 563 0014 236B     		ldr	r3, [r4, #48]
 564 0016 41F21432 		movw	r2, #4884
 565 001a 5A60     		str	r2, [r3, #4]
 464:Src/main.c    ****   hcan.pTxMsg -> IDE = CAN_ID_EXT;
 566              		.loc 1 464 0
 567 001c 236B     		ldr	r3, [r4, #48]
 568 001e 0022     		movs	r2, #0
 569 0020 DA60     		str	r2, [r3, #12]
 465:Src/main.c    ****   hcan.pTxMsg -> DLC = 2;
 570              		.loc 1 465 0
 571 0022 236B     		ldr	r3, [r4, #48]
 572 0024 0422     		movs	r2, #4
 573 0026 9A60     		str	r2, [r3, #8]
 466:Src/main.c    ****   hcan.pTxMsg -> Data[0] = 0xAB;
 574              		.loc 1 466 0
 575 0028 236B     		ldr	r3, [r4, #48]
 576 002a 0222     		movs	r2, #2
 577 002c 1A61     		str	r2, [r3, #16]
 467:Src/main.c    ****   hcan.pTxMsg -> Data[1] = 0xCD;
 578              		.loc 1 467 0
 579 002e 236B     		ldr	r3, [r4, #48]
 580 0030 AB22     		movs	r2, #171
 581 0032 1A75     		strb	r2, [r3, #20]
 468:Src/main.c    **** 
 582              		.loc 1 468 0
 583 0034 236B     		ldr	r3, [r4, #48]
 584 0036 CD22     		movs	r2, #205
 585 0038 5A75     		strb	r2, [r3, #21]
 471:Src/main.c    ****   HAL_CAN_Transmit(&hcan, 10);
 586              		.loc 1 471 0
 587 003a 0A21     		movs	r1, #10
 588 003c 2046     		mov	r0, r4
 589 003e FFF7FEFF 		bl	HAL_CAN_Transmit
 590              	.LVL47:
 472:Src/main.c    ****   /* Infinite loop */
 591              		.loc 1 472 0
 592 0042 0A21     		movs	r1, #10
 593 0044 2046     		mov	r0, r4
 594 0046 FFF7FEFF 		bl	HAL_CAN_Transmit
 595              	.LVL48:
ARM GAS  /tmp/cc2OYtPb.s 			page 21


 596              	.L28:
 484:Src/main.c    ****   }
 597              		.loc 1 484 0 discriminator 1
 598 004a FFF7FEFF 		bl	uartdamget
 599              	.LVL49:
 600 004e FCE7     		b	.L28
 601              	.L31:
 602              		.align	2
 603              	.L30:
 604 0050 00000000 		.word	hcan
 605 0054 00000000 		.word	TxMessage
 606 0058 AC000000 		.word	.LC15
 607 005c 00000000 		.word	huart1
 608              		.cfi_endproc
 609              	.LFE79:
 611              		.section	.text.HAL_TIM_PeriodElapsedCallback,"ax",%progbits
 612              		.align	2
 613              		.global	HAL_TIM_PeriodElapsedCallback
 614              		.thumb
 615              		.thumb_func
 617              	HAL_TIM_PeriodElapsedCallback:
 618              	.LFB81:
 510:Src/main.c    ****   /* Infinite loop */
 511:Src/main.c    ****   for(;;)
 512:Src/main.c    ****   {
 513:Src/main.c    ****     // osDelay(1000);
 514:Src/main.c    ****     // if (aRxBuffer2_Data_flag == 1)
 515:Src/main.c    ****     //   HAL_UART_Transmit(&huart3,aRxBuffer2_Data,4,10);
 516:Src/main.c    ****     // HAL_UART_Transmit(&huart3,"\r\nFunc_Task1_Loop\r\n",19,10);
 517:Src/main.c    ****   }
 518:Src/main.c    ****   /* USER CODE END Func_Task1 */
 519:Src/main.c    **** }
 520:Src/main.c    **** 
 521:Src/main.c    **** /**
 522:Src/main.c    ****   * @brief  Period elapsed callback in non blocking mode
 523:Src/main.c    ****   * @note   This function is called  when TIM4 interrupt took place, inside
 524:Src/main.c    ****   * HAL_TIM_IRQHandler(). It makes a direct call to HAL_IncTick() to increment
 525:Src/main.c    ****   * a global variable "uwTick" used as application time base.
 526:Src/main.c    ****   * @param  htim : TIM handle
 527:Src/main.c    ****   * @retval None
 528:Src/main.c    ****   */
 529:Src/main.c    **** void HAL_TIM_PeriodElapsedCallback(TIM_HandleTypeDef *htim)
 530:Src/main.c    **** {
 619              		.loc 1 530 0
 620              		.cfi_startproc
 621              		@ args = 0, pretend = 0, frame = 0
 622              		@ frame_needed = 0, uses_anonymous_args = 0
 623              	.LVL50:
 624 0000 08B5     		push	{r3, lr}
 625              	.LCFI11:
 626              		.cfi_def_cfa_offset 8
 627              		.cfi_offset 3, -8
 628              		.cfi_offset 14, -4
 531:Src/main.c    ****   /* USER CODE BEGIN Callback 0 */
 532:Src/main.c    **** 
 533:Src/main.c    ****   /* USER CODE END Callback 0 */
 534:Src/main.c    ****   if (htim->Instance == TIM4) {
ARM GAS  /tmp/cc2OYtPb.s 			page 22


 629              		.loc 1 534 0
 630 0002 0268     		ldr	r2, [r0]
 631 0004 024B     		ldr	r3, .L35
 632 0006 9A42     		cmp	r2, r3
 633 0008 01D1     		bne	.L32
 535:Src/main.c    ****     HAL_IncTick();
 634              		.loc 1 535 0
 635 000a FFF7FEFF 		bl	HAL_IncTick
 636              	.LVL51:
 637              	.L32:
 638 000e 08BD     		pop	{r3, pc}
 639              	.L36:
 640              		.align	2
 641              	.L35:
 642 0010 00080040 		.word	1073743872
 643              		.cfi_endproc
 644              	.LFE81:
 646              		.section	.text._Error_Handler,"ax",%progbits
 647              		.align	2
 648              		.global	_Error_Handler
 649              		.thumb
 650              		.thumb_func
 652              	_Error_Handler:
 653              	.LFB82:
 536:Src/main.c    ****   }
 537:Src/main.c    ****   /* USER CODE BEGIN Callback 1 */
 538:Src/main.c    **** 
 539:Src/main.c    ****   /* USER CODE END Callback 1 */
 540:Src/main.c    **** }
 541:Src/main.c    **** 
 542:Src/main.c    **** /**
 543:Src/main.c    ****   * @brief  This function is executed in case of error occurrence.
 544:Src/main.c    ****   * @param  file: The file name as string.
 545:Src/main.c    ****   * @param  line: The line in file as a number.
 546:Src/main.c    ****   * @retval None
 547:Src/main.c    ****   */
 548:Src/main.c    **** void _Error_Handler(char *file, int line)
 549:Src/main.c    **** {
 654              		.loc 1 549 0
 655              		.cfi_startproc
 656              		@ Volatile: function does not return.
 657              		@ args = 0, pretend = 0, frame = 0
 658              		@ frame_needed = 0, uses_anonymous_args = 0
 659              		@ link register save eliminated.
 660              	.LVL52:
 661              	.L38:
 662 0000 FEE7     		b	.L38
 663              		.cfi_endproc
 664              	.LFE82:
 666 0002 00BF     		.section	.text.MX_CAN_Init,"ax",%progbits
 667              		.align	2
 668              		.thumb
 669              		.thumb_func
 671              	MX_CAN_Init:
 672              	.LFB72:
 273:Src/main.c    **** 
 673              		.loc 1 273 0
ARM GAS  /tmp/cc2OYtPb.s 			page 23


 674              		.cfi_startproc
 675              		@ args = 0, pretend = 0, frame = 0
 676              		@ frame_needed = 0, uses_anonymous_args = 0
 273:Src/main.c    **** 
 677              		.loc 1 273 0
 678 0000 08B5     		push	{r3, lr}
 679              	.LCFI12:
 680              		.cfi_def_cfa_offset 8
 681              		.cfi_offset 3, -8
 682              		.cfi_offset 14, -4
 275:Src/main.c    ****   hcan.Init.Prescaler = 18;
 683              		.loc 1 275 0
 684 0002 0E48     		ldr	r0, .L42
 685 0004 0E4B     		ldr	r3, .L42+4
 686 0006 0360     		str	r3, [r0]
 276:Src/main.c    ****   hcan.Init.Mode = CAN_MODE_NORMAL;
 687              		.loc 1 276 0
 688 0008 1223     		movs	r3, #18
 689 000a 4360     		str	r3, [r0, #4]
 277:Src/main.c    ****   hcan.Init.SJW = CAN_SJW_1TQ;
 690              		.loc 1 277 0
 691 000c 0023     		movs	r3, #0
 692 000e 8360     		str	r3, [r0, #8]
 278:Src/main.c    ****   hcan.Init.BS1 = CAN_BS1_7TQ;
 693              		.loc 1 278 0
 694 0010 C360     		str	r3, [r0, #12]
 279:Src/main.c    ****   hcan.Init.BS2 = CAN_BS2_8TQ;
 695              		.loc 1 279 0
 696 0012 4FF4C022 		mov	r2, #393216
 697 0016 0261     		str	r2, [r0, #16]
 280:Src/main.c    ****   hcan.Init.TTCM = DISABLE;
 698              		.loc 1 280 0
 699 0018 4FF4E002 		mov	r2, #7340032
 700 001c 4261     		str	r2, [r0, #20]
 281:Src/main.c    ****   hcan.Init.ABOM = DISABLE;
 701              		.loc 1 281 0
 702 001e 8361     		str	r3, [r0, #24]
 282:Src/main.c    ****   hcan.Init.AWUM = DISABLE;
 703              		.loc 1 282 0
 704 0020 C361     		str	r3, [r0, #28]
 283:Src/main.c    ****   hcan.Init.NART = DISABLE;
 705              		.loc 1 283 0
 706 0022 0362     		str	r3, [r0, #32]
 284:Src/main.c    ****   hcan.Init.RFLM = DISABLE;
 707              		.loc 1 284 0
 708 0024 4362     		str	r3, [r0, #36]
 285:Src/main.c    ****   hcan.Init.TXFP = DISABLE;
 709              		.loc 1 285 0
 710 0026 8362     		str	r3, [r0, #40]
 286:Src/main.c    ****   if (HAL_CAN_Init(&hcan) != HAL_OK)
 711              		.loc 1 286 0
 712 0028 C362     		str	r3, [r0, #44]
 287:Src/main.c    ****   {
 713              		.loc 1 287 0
 714 002a FFF7FEFF 		bl	HAL_CAN_Init
 715              	.LVL53:
 716 002e 20B1     		cbz	r0, .L39
ARM GAS  /tmp/cc2OYtPb.s 			page 24


 289:Src/main.c    ****   }
 717              		.loc 1 289 0
 718 0030 40F22111 		movw	r1, #289
 719 0034 0348     		ldr	r0, .L42+8
 720 0036 FFF7FEFF 		bl	_Error_Handler
 721              	.LVL54:
 722              	.L39:
 723 003a 08BD     		pop	{r3, pc}
 724              	.L43:
 725              		.align	2
 726              	.L42:
 727 003c 00000000 		.word	hcan
 728 0040 00640040 		.word	1073767424
 729 0044 BC000000 		.word	.LC16
 730              		.cfi_endproc
 731              	.LFE72:
 733              		.section	.text.MX_USART1_UART_Init,"ax",%progbits
 734              		.align	2
 735              		.thumb
 736              		.thumb_func
 738              	MX_USART1_UART_Init:
 739              	.LFB73:
 296:Src/main.c    **** 
 740              		.loc 1 296 0
 741              		.cfi_startproc
 742              		@ args = 0, pretend = 0, frame = 0
 743              		@ frame_needed = 0, uses_anonymous_args = 0
 744 0000 08B5     		push	{r3, lr}
 745              	.LCFI13:
 746              		.cfi_def_cfa_offset 8
 747              		.cfi_offset 3, -8
 748              		.cfi_offset 14, -4
 298:Src/main.c    ****   huart1.Init.BaudRate = 115200;
 749              		.loc 1 298 0
 750 0002 0B48     		ldr	r0, .L47
 751 0004 0B4B     		ldr	r3, .L47+4
 752 0006 0360     		str	r3, [r0]
 299:Src/main.c    ****   huart1.Init.WordLength = UART_WORDLENGTH_8B;
 753              		.loc 1 299 0
 754 0008 4FF4E133 		mov	r3, #115200
 755 000c 4360     		str	r3, [r0, #4]
 300:Src/main.c    ****   huart1.Init.StopBits = UART_STOPBITS_1;
 756              		.loc 1 300 0
 757 000e 0023     		movs	r3, #0
 758 0010 8360     		str	r3, [r0, #8]
 301:Src/main.c    ****   huart1.Init.Parity = UART_PARITY_NONE;
 759              		.loc 1 301 0
 760 0012 C360     		str	r3, [r0, #12]
 302:Src/main.c    ****   huart1.Init.Mode = UART_MODE_TX_RX;
 761              		.loc 1 302 0
 762 0014 0361     		str	r3, [r0, #16]
 303:Src/main.c    ****   huart1.Init.HwFlowCtl = UART_HWCONTROL_NONE;
 763              		.loc 1 303 0
 764 0016 0C22     		movs	r2, #12
 765 0018 4261     		str	r2, [r0, #20]
 304:Src/main.c    ****   huart1.Init.OverSampling = UART_OVERSAMPLING_16;
 766              		.loc 1 304 0
ARM GAS  /tmp/cc2OYtPb.s 			page 25


 767 001a 8361     		str	r3, [r0, #24]
 305:Src/main.c    ****   if (HAL_UART_Init(&huart1) != HAL_OK)
 768              		.loc 1 305 0
 769 001c C361     		str	r3, [r0, #28]
 306:Src/main.c    ****   {
 770              		.loc 1 306 0
 771 001e FFF7FEFF 		bl	HAL_UART_Init
 772              	.LVL55:
 773 0022 20B1     		cbz	r0, .L44
 308:Src/main.c    ****   }
 774              		.loc 1 308 0
 775 0024 4FF49A71 		mov	r1, #308
 776 0028 0348     		ldr	r0, .L47+8
 777 002a FFF7FEFF 		bl	_Error_Handler
 778              	.LVL56:
 779              	.L44:
 780 002e 08BD     		pop	{r3, pc}
 781              	.L48:
 782              		.align	2
 783              	.L47:
 784 0030 00000000 		.word	huart1
 785 0034 00380140 		.word	1073821696
 786 0038 BC000000 		.word	.LC16
 787              		.cfi_endproc
 788              	.LFE73:
 790              		.section	.text.MX_USART2_UART_Init,"ax",%progbits
 791              		.align	2
 792              		.thumb
 793              		.thumb_func
 795              	MX_USART2_UART_Init:
 796              	.LFB74:
 315:Src/main.c    **** 
 797              		.loc 1 315 0
 798              		.cfi_startproc
 799              		@ args = 0, pretend = 0, frame = 0
 800              		@ frame_needed = 0, uses_anonymous_args = 0
 801 0000 08B5     		push	{r3, lr}
 802              	.LCFI14:
 803              		.cfi_def_cfa_offset 8
 804              		.cfi_offset 3, -8
 805              		.cfi_offset 14, -4
 317:Src/main.c    ****   huart2.Init.BaudRate = 115200;
 806              		.loc 1 317 0
 807 0002 0B48     		ldr	r0, .L52
 808 0004 0B4B     		ldr	r3, .L52+4
 809 0006 0360     		str	r3, [r0]
 318:Src/main.c    ****   huart2.Init.WordLength = UART_WORDLENGTH_8B;
 810              		.loc 1 318 0
 811 0008 4FF4E133 		mov	r3, #115200
 812 000c 4360     		str	r3, [r0, #4]
 319:Src/main.c    ****   huart2.Init.StopBits = UART_STOPBITS_1;
 813              		.loc 1 319 0
 814 000e 0023     		movs	r3, #0
 815 0010 8360     		str	r3, [r0, #8]
 320:Src/main.c    ****   huart2.Init.Parity = UART_PARITY_NONE;
 816              		.loc 1 320 0
 817 0012 C360     		str	r3, [r0, #12]
ARM GAS  /tmp/cc2OYtPb.s 			page 26


 321:Src/main.c    ****   huart2.Init.Mode = UART_MODE_TX_RX;
 818              		.loc 1 321 0
 819 0014 0361     		str	r3, [r0, #16]
 322:Src/main.c    ****   huart2.Init.HwFlowCtl = UART_HWCONTROL_NONE;
 820              		.loc 1 322 0
 821 0016 0C22     		movs	r2, #12
 822 0018 4261     		str	r2, [r0, #20]
 323:Src/main.c    ****   huart2.Init.OverSampling = UART_OVERSAMPLING_16;
 823              		.loc 1 323 0
 824 001a 8361     		str	r3, [r0, #24]
 324:Src/main.c    ****   if (HAL_UART_Init(&huart2) != HAL_OK)
 825              		.loc 1 324 0
 826 001c C361     		str	r3, [r0, #28]
 325:Src/main.c    ****   {
 827              		.loc 1 325 0
 828 001e FFF7FEFF 		bl	HAL_UART_Init
 829              	.LVL57:
 830 0022 20B1     		cbz	r0, .L49
 327:Src/main.c    ****   }
 831              		.loc 1 327 0
 832 0024 40F24711 		movw	r1, #327
 833 0028 0348     		ldr	r0, .L52+8
 834 002a FFF7FEFF 		bl	_Error_Handler
 835              	.LVL58:
 836              	.L49:
 837 002e 08BD     		pop	{r3, pc}
 838              	.L53:
 839              		.align	2
 840              	.L52:
 841 0030 00000000 		.word	huart2
 842 0034 00440040 		.word	1073759232
 843 0038 BC000000 		.word	.LC16
 844              		.cfi_endproc
 845              	.LFE74:
 847              		.section	.text.MX_USART3_UART_Init,"ax",%progbits
 848              		.align	2
 849              		.thumb
 850              		.thumb_func
 852              	MX_USART3_UART_Init:
 853              	.LFB75:
 334:Src/main.c    **** 
 854              		.loc 1 334 0
 855              		.cfi_startproc
 856              		@ args = 0, pretend = 0, frame = 0
 857              		@ frame_needed = 0, uses_anonymous_args = 0
 858 0000 08B5     		push	{r3, lr}
 859              	.LCFI15:
 860              		.cfi_def_cfa_offset 8
 861              		.cfi_offset 3, -8
 862              		.cfi_offset 14, -4
 336:Src/main.c    ****   huart3.Init.BaudRate = 115200;
 863              		.loc 1 336 0
 864 0002 0B48     		ldr	r0, .L57
 865 0004 0B4B     		ldr	r3, .L57+4
 866 0006 0360     		str	r3, [r0]
 337:Src/main.c    ****   huart3.Init.WordLength = UART_WORDLENGTH_8B;
 867              		.loc 1 337 0
ARM GAS  /tmp/cc2OYtPb.s 			page 27


 868 0008 4FF4E133 		mov	r3, #115200
 869 000c 4360     		str	r3, [r0, #4]
 338:Src/main.c    ****   huart3.Init.StopBits = UART_STOPBITS_1;
 870              		.loc 1 338 0
 871 000e 0023     		movs	r3, #0
 872 0010 8360     		str	r3, [r0, #8]
 339:Src/main.c    ****   huart3.Init.Parity = UART_PARITY_NONE;
 873              		.loc 1 339 0
 874 0012 C360     		str	r3, [r0, #12]
 340:Src/main.c    ****   huart3.Init.Mode = UART_MODE_TX_RX;
 875              		.loc 1 340 0
 876 0014 0361     		str	r3, [r0, #16]
 341:Src/main.c    ****   huart3.Init.HwFlowCtl = UART_HWCONTROL_NONE;
 877              		.loc 1 341 0
 878 0016 0C22     		movs	r2, #12
 879 0018 4261     		str	r2, [r0, #20]
 342:Src/main.c    ****   huart3.Init.OverSampling = UART_OVERSAMPLING_16;
 880              		.loc 1 342 0
 881 001a 8361     		str	r3, [r0, #24]
 343:Src/main.c    ****   if (HAL_UART_Init(&huart3) != HAL_OK)
 882              		.loc 1 343 0
 883 001c C361     		str	r3, [r0, #28]
 344:Src/main.c    ****   {
 884              		.loc 1 344 0
 885 001e FFF7FEFF 		bl	HAL_UART_Init
 886              	.LVL59:
 887 0022 20B1     		cbz	r0, .L54
 346:Src/main.c    ****   }
 888              		.loc 1 346 0
 889 0024 4FF4AD71 		mov	r1, #346
 890 0028 0348     		ldr	r0, .L57+8
 891 002a FFF7FEFF 		bl	_Error_Handler
 892              	.LVL60:
 893              	.L54:
 894 002e 08BD     		pop	{r3, pc}
 895              	.L58:
 896              		.align	2
 897              	.L57:
 898 0030 00000000 		.word	huart3
 899 0034 00480040 		.word	1073760256
 900 0038 BC000000 		.word	.LC16
 901              		.cfi_endproc
 902              	.LFE75:
 904              		.section	.text.SystemClock_Config,"ax",%progbits
 905              		.align	2
 906              		.global	SystemClock_Config
 907              		.thumb
 908              		.thumb_func
 910              	SystemClock_Config:
 911              	.LFB70:
 206:Src/main.c    **** 
 912              		.loc 1 206 0
 913              		.cfi_startproc
 914              		@ args = 0, pretend = 0, frame = 64
 915              		@ frame_needed = 0, uses_anonymous_args = 0
 916 0000 00B5     		push	{lr}
 917              	.LCFI16:
ARM GAS  /tmp/cc2OYtPb.s 			page 28


 918              		.cfi_def_cfa_offset 4
 919              		.cfi_offset 14, -4
 920 0002 91B0     		sub	sp, sp, #68
 921              	.LCFI17:
 922              		.cfi_def_cfa_offset 72
 213:Src/main.c    ****   RCC_OscInitStruct.HSEState = RCC_HSE_ON;
 923              		.loc 1 213 0
 924 0004 0122     		movs	r2, #1
 925 0006 0692     		str	r2, [sp, #24]
 214:Src/main.c    ****   RCC_OscInitStruct.HSEPredivValue = RCC_HSE_PREDIV_DIV1;
 926              		.loc 1 214 0
 927 0008 4FF48033 		mov	r3, #65536
 928 000c 0793     		str	r3, [sp, #28]
 215:Src/main.c    ****   RCC_OscInitStruct.HSIState = RCC_HSI_ON;
 929              		.loc 1 215 0
 930 000e 0021     		movs	r1, #0
 931 0010 0891     		str	r1, [sp, #32]
 216:Src/main.c    ****   RCC_OscInitStruct.PLL.PLLState = RCC_PLL_ON;
 932              		.loc 1 216 0
 933 0012 0A92     		str	r2, [sp, #40]
 217:Src/main.c    ****   RCC_OscInitStruct.PLL.PLLSource = RCC_PLLSOURCE_HSE;
 934              		.loc 1 217 0
 935 0014 0222     		movs	r2, #2
 936 0016 0D92     		str	r2, [sp, #52]
 218:Src/main.c    ****   RCC_OscInitStruct.PLL.PLLMUL = RCC_PLL_MUL9;
 937              		.loc 1 218 0
 938 0018 0E93     		str	r3, [sp, #56]
 219:Src/main.c    ****   if (HAL_RCC_OscConfig(&RCC_OscInitStruct) != HAL_OK)
 939              		.loc 1 219 0
 940 001a 4FF4E013 		mov	r3, #1835008
 941 001e 0F93     		str	r3, [sp, #60]
 220:Src/main.c    ****   {
 942              		.loc 1 220 0
 943 0020 06A8     		add	r0, sp, #24
 944 0022 FFF7FEFF 		bl	HAL_RCC_OscConfig
 945              	.LVL61:
 946 0026 18B1     		cbz	r0, .L60
 222:Src/main.c    ****   }
 947              		.loc 1 222 0
 948 0028 DE21     		movs	r1, #222
 949 002a 1448     		ldr	r0, .L63
 950 002c FFF7FEFF 		bl	_Error_Handler
 951              	.LVL62:
 952              	.L60:
 227:Src/main.c    ****                               |RCC_CLOCKTYPE_PCLK1|RCC_CLOCKTYPE_PCLK2;
 953              		.loc 1 227 0
 954 0030 0F23     		movs	r3, #15
 955 0032 0193     		str	r3, [sp, #4]
 229:Src/main.c    ****   RCC_ClkInitStruct.AHBCLKDivider = RCC_SYSCLK_DIV1;
 956              		.loc 1 229 0
 957 0034 0221     		movs	r1, #2
 958 0036 0291     		str	r1, [sp, #8]
 230:Src/main.c    ****   RCC_ClkInitStruct.APB1CLKDivider = RCC_HCLK_DIV2;
 959              		.loc 1 230 0
 960 0038 0023     		movs	r3, #0
 961 003a 0393     		str	r3, [sp, #12]
 231:Src/main.c    ****   RCC_ClkInitStruct.APB2CLKDivider = RCC_HCLK_DIV1;
ARM GAS  /tmp/cc2OYtPb.s 			page 29


 962              		.loc 1 231 0
 963 003c 4FF48062 		mov	r2, #1024
 964 0040 0492     		str	r2, [sp, #16]
 232:Src/main.c    **** 
 965              		.loc 1 232 0
 966 0042 0593     		str	r3, [sp, #20]
 234:Src/main.c    ****   {
 967              		.loc 1 234 0
 968 0044 01A8     		add	r0, sp, #4
 969 0046 FFF7FEFF 		bl	HAL_RCC_ClockConfig
 970              	.LVL63:
 971 004a 18B1     		cbz	r0, .L61
 236:Src/main.c    ****   }
 972              		.loc 1 236 0
 973 004c EC21     		movs	r1, #236
 974 004e 0B48     		ldr	r0, .L63
 975 0050 FFF7FEFF 		bl	_Error_Handler
 976              	.LVL64:
 977              	.L61:
 241:Src/main.c    **** 
 978              		.loc 1 241 0
 979 0054 FFF7FEFF 		bl	HAL_RCC_GetHCLKFreq
 980              	.LVL65:
 981 0058 094B     		ldr	r3, .L63+4
 982 005a A3FB0030 		umull	r3, r0, r3, r0
 983 005e 8009     		lsrs	r0, r0, #6
 984 0060 FFF7FEFF 		bl	HAL_SYSTICK_Config
 985              	.LVL66:
 245:Src/main.c    **** 
 986              		.loc 1 245 0
 987 0064 0420     		movs	r0, #4
 988 0066 FFF7FEFF 		bl	HAL_SYSTICK_CLKSourceConfig
 989              	.LVL67:
 248:Src/main.c    **** }
 990              		.loc 1 248 0
 991 006a 0022     		movs	r2, #0
 992 006c 0F21     		movs	r1, #15
 993 006e 4FF0FF30 		mov	r0, #-1
 994 0072 FFF7FEFF 		bl	HAL_NVIC_SetPriority
 995              	.LVL68:
 249:Src/main.c    **** 
 996              		.loc 1 249 0
 997 0076 11B0     		add	sp, sp, #68
 998              	.LCFI18:
 999              		.cfi_def_cfa_offset 4
 1000              		@ sp needed
 1001 0078 5DF804FB 		ldr	pc, [sp], #4
 1002              	.L64:
 1003              		.align	2
 1004              	.L63:
 1005 007c BC000000 		.word	.LC16
 1006 0080 D34D6210 		.word	274877907
 1007              		.cfi_endproc
 1008              	.LFE70:
 1010              		.section	.text.main,"ax",%progbits
 1011              		.align	2
 1012              		.global	main
ARM GAS  /tmp/cc2OYtPb.s 			page 30


 1013              		.thumb
 1014              		.thumb_func
 1016              	main:
 1017              	.LFB69:
 115:Src/main.c    ****   /* USER CODE BEGIN 1 */
 1018              		.loc 1 115 0
 1019              		.cfi_startproc
 1020              		@ args = 0, pretend = 0, frame = 40
 1021              		@ frame_needed = 0, uses_anonymous_args = 0
 1022 0000 70B5     		push	{r4, r5, r6, lr}
 1023              	.LCFI19:
 1024              		.cfi_def_cfa_offset 16
 1025              		.cfi_offset 4, -16
 1026              		.cfi_offset 5, -12
 1027              		.cfi_offset 6, -8
 1028              		.cfi_offset 14, -4
 1029 0002 8AB0     		sub	sp, sp, #40
 1030              	.LCFI20:
 1031              		.cfi_def_cfa_offset 56
 123:Src/main.c    **** 
 1032              		.loc 1 123 0
 1033 0004 FFF7FEFF 		bl	HAL_Init
 1034              	.LVL69:
 130:Src/main.c    **** 
 1035              		.loc 1 130 0
 1036 0008 FFF7FEFF 		bl	SystemClock_Config
 1037              	.LVL70:
 137:Src/main.c    ****   MX_DMA_Init();
 1038              		.loc 1 137 0
 1039 000c FFF7FEFF 		bl	MX_GPIO_Init
 1040              	.LVL71:
 138:Src/main.c    ****   MX_CAN_Init();
 1041              		.loc 1 138 0
 1042 0010 FFF7FEFF 		bl	MX_DMA_Init
 1043              	.LVL72:
 139:Src/main.c    ****   MX_USART1_UART_Init();
 1044              		.loc 1 139 0
 1045 0014 FFF7FEFF 		bl	MX_CAN_Init
 1046              	.LVL73:
 140:Src/main.c    ****   MX_USART2_UART_Init();
 1047              		.loc 1 140 0
 1048 0018 FFF7FEFF 		bl	MX_USART1_UART_Init
 1049              	.LVL74:
 141:Src/main.c    ****   MX_USART3_UART_Init();
 1050              		.loc 1 141 0
 1051 001c FFF7FEFF 		bl	MX_USART2_UART_Init
 1052              	.LVL75:
 142:Src/main.c    **** 
 1053              		.loc 1 142 0
 1054 0020 FFF7FEFF 		bl	MX_USART3_UART_Init
 1055              	.LVL76:
 145:Src/main.c    ****   /* USER CODE BEGIN 2 */
 1056              		.loc 1 145 0
 1057 0024 FFF7FEFF 		bl	MX_NVIC_Init
 1058              	.LVL77:
 147:Src/main.c    ****   /*        ä½¿èƒ½ä¸²å£2 IDLEä¸­æ–­        */
 1059              		.loc 1 147 0
ARM GAS  /tmp/cc2OYtPb.s 			page 31


 1060 0028 0A23     		movs	r3, #10
 1061 002a 0522     		movs	r2, #5
 1062 002c 1249     		ldr	r1, .L68
 1063 002e 1348     		ldr	r0, .L68+4
 1064 0030 FFF7FEFF 		bl	HAL_UART_Transmit
 1065              	.LVL78:
 149:Src/main.c    ****   /* USER CODE END 2 */
 1066              		.loc 1 149 0
 1067 0034 124B     		ldr	r3, .L68+8
 1068 0036 1A68     		ldr	r2, [r3]
 1069 0038 D368     		ldr	r3, [r2, #12]
 1070 003a 43F01003 		orr	r3, r3, #16
 1071 003e D360     		str	r3, [r2, #12]
 166:Src/main.c    ****   Task0Handle = osThreadCreate(osThread(Task0), NULL);
 1072              		.loc 1 166 0
 1073 0040 104C     		ldr	r4, .L68+12
 1074 0042 05AD     		add	r5, sp, #20
 1075 0044 2646     		mov	r6, r4
 1076 0046 0FCE     		ldmia	r6!, {r0, r1, r2, r3}
 1077 0048 0FC5     		stmia	r5!, {r0, r1, r2, r3}
 1078 004a 3368     		ldr	r3, [r6]
 1079 004c 2B60     		str	r3, [r5]
 167:Src/main.c    **** 
 1080              		.loc 1 167 0
 1081 004e 0021     		movs	r1, #0
 1082 0050 05A8     		add	r0, sp, #20
 1083 0052 FFF7FEFF 		bl	osThreadCreate
 1084              	.LVL79:
 1085 0056 0C4B     		ldr	r3, .L68+16
 1086 0058 1860     		str	r0, [r3]
 170:Src/main.c    ****   Task1Handle = osThreadCreate(osThread(Task1), NULL);
 1087              		.loc 1 170 0
 1088 005a 6D46     		mov	r5, sp
 1089 005c 1434     		adds	r4, r4, #20
 1090 005e 0FCC     		ldmia	r4!, {r0, r1, r2, r3}
 1091 0060 0FC5     		stmia	r5!, {r0, r1, r2, r3}
 1092 0062 2368     		ldr	r3, [r4]
 1093 0064 2B60     		str	r3, [r5]
 171:Src/main.c    **** 
 1094              		.loc 1 171 0
 1095 0066 0021     		movs	r1, #0
 1096 0068 6846     		mov	r0, sp
 1097 006a FFF7FEFF 		bl	osThreadCreate
 1098              	.LVL80:
 1099 006e 074B     		ldr	r3, .L68+20
 1100 0070 1860     		str	r0, [r3]
 183:Src/main.c    ****   
 1101              		.loc 1 183 0
 1102 0072 FFF7FEFF 		bl	osKernelStart
 1103              	.LVL81:
 1104              	.L66:
 1105 0076 FEE7     		b	.L66
 1106              	.L69:
 1107              		.align	2
 1108              	.L68:
 1109 0078 C8000000 		.word	.LC17
 1110 007c 00000000 		.word	huart3
ARM GAS  /tmp/cc2OYtPb.s 			page 32


 1111 0080 00000000 		.word	huart2
 1112 0084 00000000 		.word	.LANCHOR1
 1113 0088 00000000 		.word	Task0Handle
 1114 008c 00000000 		.word	Task1Handle
 1115              		.cfi_endproc
 1116              	.LFE69:
 1118              		.comm	Rx_len,1,1
 1119              		.global	recv_end_flag
 1120              		.comm	ReceiveBuff,255,4
 1121              		.global	aRxBuffer2_Data_Index
 1122              		.global	aRxBuffer2_Data_flag
 1123              		.comm	aRxBuffer2_Data,4,4
 1124              		.comm	aRxBuffer3,1,4
 1125              		.comm	aRxBuffer2,1,4
 1126              		.comm	aRxBuffer1,1,4
 1127              		.comm	RxMessage,36,4
 1128              		.comm	TxMessage,28,4
 1129              		.comm	sFliterConfig,40,4
 1130              		.comm	Task1Handle,4,4
 1131              		.comm	Task0Handle,4,4
 1132              		.comm	hdma_usart2_rx,68,4
 1133              		.comm	huart3,64,4
 1134              		.comm	huart2,64,4
 1135              		.comm	huart1,64,4
 1136              		.comm	hcan,68,4
 1137              		.section	.rodata
 1138              		.align	2
 1139              		.set	.LANCHOR1,. + 0
 1140              	.LC18:
 1141 0000 D8000000 		.word	.LC0
 1142 0004 00000000 		.word	Func_Task0
 1143 0008 0000     		.short	0
 1144 000a 0000     		.space	2
 1145 000c 00000000 		.word	0
 1146 0010 00010000 		.word	256
 1147              	.LC19:
 1148 0014 D0000000 		.word	.LC2
 1149 0018 00000000 		.word	Func_Task1
 1150 001c 0000     		.short	0
 1151 001e 0000     		.space	2
 1152 0020 00000000 		.word	0
 1153 0024 00010000 		.word	256
 1154              		.section	.bss.aRxBuffer2_Data_flag,"aw",%nobits
 1157              	aRxBuffer2_Data_flag:
 1158 0000 00       		.space	1
 1159              		.section	.rodata.str1.4,"aMS",%progbits,1
 1160              		.align	2
 1161              	.LC4:
 1162 0000 0D0A4675 		.ascii	"\015\012Func_Task1\015\012\000"
 1162      6E635F54 
 1162      61736B31 
 1162      0D0A00
 1163 000f 00       		.space	1
 1164              	.LC5:
 1165 0010 41542B43 		.ascii	"AT+CWMODE=2\015\012\000"
 1165      574D4F44 
 1165      453D320D 
ARM GAS  /tmp/cc2OYtPb.s 			page 33


 1165      0A00
 1166 001e 0000     		.space	2
 1167              	.LC6:
 1168 0020 41542B52 		.ascii	"AT+RST\015\012\000"
 1168      53540D0A 
 1168      00
 1169 0029 000000   		.space	3
 1170              	.LC7:
 1171 002c 41542B43 		.ascii	"AT+CWSAP=\"PYY_8266\",\"12345678\",6,4\015\012\000"
 1171      57534150 
 1171      3D225059 
 1171      595F3832 
 1171      3636222C 
 1172 0051 000000   		.space	3
 1173              	.LC8:
 1174 0054 41542B43 		.ascii	"AT+CIPMUX=1\015\012\000"
 1174      49504D55 
 1174      583D310D 
 1174      0A00
 1175 0062 0000     		.space	2
 1176              	.LC9:
 1177 0064 41542B43 		.ascii	"AT+CIPSERVER=1,333\015\012\000"
 1177      49505345 
 1177      52564552 
 1177      3D312C33 
 1177      33330D0A 
 1178 0079 000000   		.space	3
 1179              	.LC10:
 1180 007c 41542B43 		.ascii	"AT+CIFSR\015\012\000"
 1180      49465352 
 1180      0D0A00
 1181 0087 00       		.space	1
 1182              	.LC11:
 1183 0088 0D0A4649 		.ascii	"\015\012FINISHED\015\012\000"
 1183      4E495348 
 1183      45440D0A 
 1183      00
 1184 0095 000000   		.space	3
 1185              	.LC12:
 1186 0098 256300   		.ascii	"%c\000"
 1187 009b 00       		.space	1
 1188              	.LC13:
 1189 009c 0D0A436F 		.ascii	"\015\012Correct\000"
 1189      72726563 
 1189      7400
 1190 00a6 0000     		.space	2
 1191              	.LC14:
 1192 00a8 0D0A00   		.ascii	"\015\012\000"
 1193 00ab 00       		.space	1
 1194              	.LC15:
 1195 00ac 0D0A4675 		.ascii	"\015\012Func_Task0\015\012\000"
 1195      6E635F54 
 1195      61736B30 
 1195      0D0A00
 1196 00bb 00       		.space	1
 1197              	.LC16:
 1198 00bc 5372632F 		.ascii	"Src/main.c\000"
ARM GAS  /tmp/cc2OYtPb.s 			page 34


 1198      6D61696E 
 1198      2E6300
 1199 00c7 00       		.space	1
 1200              	.LC17:
 1201 00c8 444D410D 		.ascii	"DMA\015\012\000"
 1201      0A00
 1202 00ce 0000     		.space	2
 1203              	.LC2:
 1204 00d0 5461736B 		.ascii	"Task1\000"
 1204      3100
 1205 00d6 0000     		.space	2
 1206              	.LC0:
 1207 00d8 5461736B 		.ascii	"Task0\000"
 1207      3000
 1208              		.section	.bss.aRxBuffer2_Data_Index,"aw",%nobits
 1211              	aRxBuffer2_Data_Index:
 1212 0000 00       		.space	1
 1213              		.section	.bss.recv_end_flag,"aw",%nobits
 1214              		.set	.LANCHOR0,. + 0
 1217              	recv_end_flag:
 1218 0000 00       		.space	1
 1219              		.text
 1220              	.Letext0:
 1221              		.file 2 "/home/user/Library/gcc-arm-none-eabi-5_4-2016q3/arm-none-eabi/include/machine/_default_ty
 1222              		.file 3 "/home/user/Library/gcc-arm-none-eabi-5_4-2016q3/arm-none-eabi/include/sys/_stdint.h"
 1223              		.file 4 "Drivers/CMSIS/Device/ST/STM32F1xx/Include/stm32f103xe.h"
 1224              		.file 5 "Drivers/CMSIS/Device/ST/STM32F1xx/Include/stm32f1xx.h"
 1225              		.file 6 "Drivers/STM32F1xx_HAL_Driver/Inc/stm32f1xx_hal_def.h"
 1226              		.file 7 "Drivers/STM32F1xx_HAL_Driver/Inc/stm32f1xx_hal_rcc.h"
 1227              		.file 8 "Drivers/STM32F1xx_HAL_Driver/Inc/stm32f1xx_hal_rcc_ex.h"
 1228              		.file 9 "Drivers/STM32F1xx_HAL_Driver/Inc/stm32f1xx_hal_gpio.h"
 1229              		.file 10 "Drivers/STM32F1xx_HAL_Driver/Inc/stm32f1xx_hal_dma.h"
 1230              		.file 11 "Drivers/STM32F1xx_HAL_Driver/Inc/stm32f1xx_hal_can.h"
 1231              		.file 12 "Drivers/STM32F1xx_HAL_Driver/Inc/stm32f1xx_hal_can_ex.h"
 1232              		.file 13 "Drivers/STM32F1xx_HAL_Driver/Inc/stm32f1xx_hal_tim.h"
 1233              		.file 14 "Drivers/STM32F1xx_HAL_Driver/Inc/stm32f1xx_hal_uart.h"
 1234              		.file 15 "Middlewares/Third_Party/FreeRTOS/Source/include/task.h"
 1235              		.file 16 "Middlewares/Third_Party/FreeRTOS/Source/CMSIS_RTOS/cmsis_os.h"
 1236              		.file 17 "Drivers/CMSIS/Include/core_cm3.h"
 1237              		.file 18 "Drivers/STM32F1xx_HAL_Driver/Inc/stm32f1xx_hal_cortex.h"
 1238              		.file 19 "/home/user/Library/gcc-arm-none-eabi-5_4-2016q3/arm-none-eabi/include/stdio.h"
 1239              		.file 20 "Drivers/STM32F1xx_HAL_Driver/Inc/stm32f1xx_hal.h"
ARM GAS  /tmp/cc2OYtPb.s 			page 35

