ARM GAS  /tmp/ccbTO6ms.s 			page 1


   1              		.syntax unified
   2              		.cpu cortex-m3
   3              		.fpu softvfp
   4              		.eabi_attribute 20, 1
   5              		.eabi_attribute 21, 1
   6              		.eabi_attribute 23, 3
   7              		.eabi_attribute 24, 1
   8              		.eabi_attribute 25, 1
   9              		.eabi_attribute 26, 1
  10              		.eabi_attribute 30, 1
  11              		.eabi_attribute 34, 1
  12              		.eabi_attribute 18, 4
  13              		.thumb
  14              		.syntax unified
  15              		.file	"stm32f1xx_it.c"
  16              		.text
  17              	.Ltext0:
  18              		.cfi_sections	.debug_frame
  19              		.section	.text.NMI_Handler,"ax",%progbits
  20              		.align	2
  21              		.global	NMI_Handler
  22              		.thumb
  23              		.thumb_func
  25              	NMI_Handler:
  26              	.LFB69:
  27              		.file 1 "Src/stm32f1xx_it.c"
   1:Src/stm32f1xx_it.c **** /**
   2:Src/stm32f1xx_it.c ****   ******************************************************************************
   3:Src/stm32f1xx_it.c ****   * @file    stm32f1xx_it.c
   4:Src/stm32f1xx_it.c ****   * @brief   Interrupt Service Routines.
   5:Src/stm32f1xx_it.c ****   ******************************************************************************
   6:Src/stm32f1xx_it.c ****   *
   7:Src/stm32f1xx_it.c ****   * COPYRIGHT(c) 2019 STMicroelectronics
   8:Src/stm32f1xx_it.c ****   *
   9:Src/stm32f1xx_it.c ****   * Redistribution and use in source and binary forms, with or without modification,
  10:Src/stm32f1xx_it.c ****   * are permitted provided that the following conditions are met:
  11:Src/stm32f1xx_it.c ****   *   1. Redistributions of source code must retain the above copyright notice,
  12:Src/stm32f1xx_it.c ****   *      this list of conditions and the following disclaimer.
  13:Src/stm32f1xx_it.c ****   *   2. Redistributions in binary form must reproduce the above copyright notice,
  14:Src/stm32f1xx_it.c ****   *      this list of conditions and the following disclaimer in the documentation
  15:Src/stm32f1xx_it.c ****   *      and/or other materials provided with the distribution.
  16:Src/stm32f1xx_it.c ****   *   3. Neither the name of STMicroelectronics nor the names of its contributors
  17:Src/stm32f1xx_it.c ****   *      may be used to endorse or promote products derived from this software
  18:Src/stm32f1xx_it.c ****   *      without specific prior written permission.
  19:Src/stm32f1xx_it.c ****   *
  20:Src/stm32f1xx_it.c ****   * THIS SOFTWARE IS PROVIDED BY THE COPYRIGHT HOLDERS AND CONTRIBUTORS "AS IS"
  21:Src/stm32f1xx_it.c ****   * AND ANY EXPRESS OR IMPLIED WARRANTIES, INCLUDING, BUT NOT LIMITED TO, THE
  22:Src/stm32f1xx_it.c ****   * IMPLIED WARRANTIES OF MERCHANTABILITY AND FITNESS FOR A PARTICULAR PURPOSE ARE
  23:Src/stm32f1xx_it.c ****   * DISCLAIMED. IN NO EVENT SHALL THE COPYRIGHT HOLDER OR CONTRIBUTORS BE LIABLE
  24:Src/stm32f1xx_it.c ****   * FOR ANY DIRECT, INDIRECT, INCIDENTAL, SPECIAL, EXEMPLARY, OR CONSEQUENTIAL
  25:Src/stm32f1xx_it.c ****   * DAMAGES (INCLUDING, BUT NOT LIMITED TO, PROCUREMENT OF SUBSTITUTE GOODS OR
  26:Src/stm32f1xx_it.c ****   * SERVICES; LOSS OF USE, DATA, OR PROFITS; OR BUSINESS INTERRUPTION) HOWEVER
  27:Src/stm32f1xx_it.c ****   * CAUSED AND ON ANY THEORY OF LIABILITY, WHETHER IN CONTRACT, STRICT LIABILITY,
  28:Src/stm32f1xx_it.c ****   * OR TORT (INCLUDING NEGLIGENCE OR OTHERWISE) ARISING IN ANY WAY OUT OF THE USE
  29:Src/stm32f1xx_it.c ****   * OF THIS SOFTWARE, EVEN IF ADVISED OF THE POSSIBILITY OF SUCH DAMAGE.
  30:Src/stm32f1xx_it.c ****   *
  31:Src/stm32f1xx_it.c ****   ******************************************************************************
ARM GAS  /tmp/ccbTO6ms.s 			page 2


  32:Src/stm32f1xx_it.c ****   */
  33:Src/stm32f1xx_it.c **** /* Includes ------------------------------------------------------------------*/
  34:Src/stm32f1xx_it.c **** #include "stm32f1xx_hal.h"
  35:Src/stm32f1xx_it.c **** #include "stm32f1xx.h"
  36:Src/stm32f1xx_it.c **** #include "stm32f1xx_it.h"
  37:Src/stm32f1xx_it.c **** #include "cmsis_os.h"
  38:Src/stm32f1xx_it.c **** 
  39:Src/stm32f1xx_it.c **** /* USER CODE BEGIN 0 */
  40:Src/stm32f1xx_it.c **** #define BUFFERSIZE 255
  41:Src/stm32f1xx_it.c **** extern uint8_t recv_end_flag,Rx_len,bootfirst;
  42:Src/stm32f1xx_it.c **** /* USER CODE END 0 */
  43:Src/stm32f1xx_it.c **** 
  44:Src/stm32f1xx_it.c **** /* External variables --------------------------------------------------------*/
  45:Src/stm32f1xx_it.c **** extern CAN_HandleTypeDef hcan;
  46:Src/stm32f1xx_it.c **** extern DMA_HandleTypeDef hdma_usart2_rx;
  47:Src/stm32f1xx_it.c **** extern UART_HandleTypeDef huart1;
  48:Src/stm32f1xx_it.c **** extern UART_HandleTypeDef huart2;
  49:Src/stm32f1xx_it.c **** extern UART_HandleTypeDef huart3;
  50:Src/stm32f1xx_it.c **** 
  51:Src/stm32f1xx_it.c **** extern TIM_HandleTypeDef htim4;
  52:Src/stm32f1xx_it.c **** 
  53:Src/stm32f1xx_it.c **** /******************************************************************************/
  54:Src/stm32f1xx_it.c **** /*            Cortex-M3 Processor Interruption and Exception Handlers         */ 
  55:Src/stm32f1xx_it.c **** /******************************************************************************/
  56:Src/stm32f1xx_it.c **** 
  57:Src/stm32f1xx_it.c **** /**
  58:Src/stm32f1xx_it.c **** * @brief This function handles Non maskable interrupt.
  59:Src/stm32f1xx_it.c **** */
  60:Src/stm32f1xx_it.c **** void NMI_Handler(void)
  61:Src/stm32f1xx_it.c **** {
  28              		.loc 1 61 0
  29              		.cfi_startproc
  30              		@ args = 0, pretend = 0, frame = 0
  31              		@ frame_needed = 0, uses_anonymous_args = 0
  32              		@ link register save eliminated.
  33 0000 7047     		bx	lr
  34              		.cfi_endproc
  35              	.LFE69:
  37 0002 00BF     		.section	.text.HardFault_Handler,"ax",%progbits
  38              		.align	2
  39              		.global	HardFault_Handler
  40              		.thumb
  41              		.thumb_func
  43              	HardFault_Handler:
  44              	.LFB70:
  62:Src/stm32f1xx_it.c ****   /* USER CODE BEGIN NonMaskableInt_IRQn 0 */
  63:Src/stm32f1xx_it.c **** 
  64:Src/stm32f1xx_it.c ****   /* USER CODE END NonMaskableInt_IRQn 0 */
  65:Src/stm32f1xx_it.c ****   /* USER CODE BEGIN NonMaskableInt_IRQn 1 */
  66:Src/stm32f1xx_it.c **** 
  67:Src/stm32f1xx_it.c ****   /* USER CODE END NonMaskableInt_IRQn 1 */
  68:Src/stm32f1xx_it.c **** }
  69:Src/stm32f1xx_it.c **** 
  70:Src/stm32f1xx_it.c **** /**
  71:Src/stm32f1xx_it.c **** * @brief This function handles Hard fault interrupt.
  72:Src/stm32f1xx_it.c **** */
  73:Src/stm32f1xx_it.c **** void HardFault_Handler(void)
ARM GAS  /tmp/ccbTO6ms.s 			page 3


  74:Src/stm32f1xx_it.c **** {
  45              		.loc 1 74 0
  46              		.cfi_startproc
  47              		@ Volatile: function does not return.
  48              		@ args = 0, pretend = 0, frame = 0
  49              		@ frame_needed = 0, uses_anonymous_args = 0
  50              		@ link register save eliminated.
  51              	.L3:
  52 0000 FEE7     		b	.L3
  53              		.cfi_endproc
  54              	.LFE70:
  56 0002 00BF     		.section	.text.MemManage_Handler,"ax",%progbits
  57              		.align	2
  58              		.global	MemManage_Handler
  59              		.thumb
  60              		.thumb_func
  62              	MemManage_Handler:
  63              	.LFB71:
  75:Src/stm32f1xx_it.c ****   /* USER CODE BEGIN HardFault_IRQn 0 */
  76:Src/stm32f1xx_it.c **** 
  77:Src/stm32f1xx_it.c ****   /* USER CODE END HardFault_IRQn 0 */
  78:Src/stm32f1xx_it.c ****   while (1)
  79:Src/stm32f1xx_it.c ****   {
  80:Src/stm32f1xx_it.c ****     /* USER CODE BEGIN W1_HardFault_IRQn 0 */
  81:Src/stm32f1xx_it.c ****     /* USER CODE END W1_HardFault_IRQn 0 */
  82:Src/stm32f1xx_it.c ****   }
  83:Src/stm32f1xx_it.c ****   /* USER CODE BEGIN HardFault_IRQn 1 */
  84:Src/stm32f1xx_it.c **** 
  85:Src/stm32f1xx_it.c ****   /* USER CODE END HardFault_IRQn 1 */
  86:Src/stm32f1xx_it.c **** }
  87:Src/stm32f1xx_it.c **** 
  88:Src/stm32f1xx_it.c **** /**
  89:Src/stm32f1xx_it.c **** * @brief This function handles Memory management fault.
  90:Src/stm32f1xx_it.c **** */
  91:Src/stm32f1xx_it.c **** void MemManage_Handler(void)
  92:Src/stm32f1xx_it.c **** {
  64              		.loc 1 92 0
  65              		.cfi_startproc
  66              		@ Volatile: function does not return.
  67              		@ args = 0, pretend = 0, frame = 0
  68              		@ frame_needed = 0, uses_anonymous_args = 0
  69              		@ link register save eliminated.
  70              	.L5:
  71 0000 FEE7     		b	.L5
  72              		.cfi_endproc
  73              	.LFE71:
  75 0002 00BF     		.section	.text.BusFault_Handler,"ax",%progbits
  76              		.align	2
  77              		.global	BusFault_Handler
  78              		.thumb
  79              		.thumb_func
  81              	BusFault_Handler:
  82              	.LFB72:
  93:Src/stm32f1xx_it.c ****   /* USER CODE BEGIN MemoryManagement_IRQn 0 */
  94:Src/stm32f1xx_it.c **** 
  95:Src/stm32f1xx_it.c ****   /* USER CODE END MemoryManagement_IRQn 0 */
  96:Src/stm32f1xx_it.c ****   while (1)
ARM GAS  /tmp/ccbTO6ms.s 			page 4


  97:Src/stm32f1xx_it.c ****   {
  98:Src/stm32f1xx_it.c ****     /* USER CODE BEGIN W1_MemoryManagement_IRQn 0 */
  99:Src/stm32f1xx_it.c ****     /* USER CODE END W1_MemoryManagement_IRQn 0 */
 100:Src/stm32f1xx_it.c ****   }
 101:Src/stm32f1xx_it.c ****   /* USER CODE BEGIN MemoryManagement_IRQn 1 */
 102:Src/stm32f1xx_it.c **** 
 103:Src/stm32f1xx_it.c ****   /* USER CODE END MemoryManagement_IRQn 1 */
 104:Src/stm32f1xx_it.c **** }
 105:Src/stm32f1xx_it.c **** 
 106:Src/stm32f1xx_it.c **** /**
 107:Src/stm32f1xx_it.c **** * @brief This function handles Prefetch fault, memory access fault.
 108:Src/stm32f1xx_it.c **** */
 109:Src/stm32f1xx_it.c **** void BusFault_Handler(void)
 110:Src/stm32f1xx_it.c **** {
  83              		.loc 1 110 0
  84              		.cfi_startproc
  85              		@ Volatile: function does not return.
  86              		@ args = 0, pretend = 0, frame = 0
  87              		@ frame_needed = 0, uses_anonymous_args = 0
  88              		@ link register save eliminated.
  89              	.L7:
  90 0000 FEE7     		b	.L7
  91              		.cfi_endproc
  92              	.LFE72:
  94 0002 00BF     		.section	.text.UsageFault_Handler,"ax",%progbits
  95              		.align	2
  96              		.global	UsageFault_Handler
  97              		.thumb
  98              		.thumb_func
 100              	UsageFault_Handler:
 101              	.LFB73:
 111:Src/stm32f1xx_it.c ****   /* USER CODE BEGIN BusFault_IRQn 0 */
 112:Src/stm32f1xx_it.c **** 
 113:Src/stm32f1xx_it.c ****   /* USER CODE END BusFault_IRQn 0 */
 114:Src/stm32f1xx_it.c ****   while (1)
 115:Src/stm32f1xx_it.c ****   {
 116:Src/stm32f1xx_it.c ****     /* USER CODE BEGIN W1_BusFault_IRQn 0 */
 117:Src/stm32f1xx_it.c ****     /* USER CODE END W1_BusFault_IRQn 0 */
 118:Src/stm32f1xx_it.c ****   }
 119:Src/stm32f1xx_it.c ****   /* USER CODE BEGIN BusFault_IRQn 1 */
 120:Src/stm32f1xx_it.c **** 
 121:Src/stm32f1xx_it.c ****   /* USER CODE END BusFault_IRQn 1 */
 122:Src/stm32f1xx_it.c **** }
 123:Src/stm32f1xx_it.c **** 
 124:Src/stm32f1xx_it.c **** /**
 125:Src/stm32f1xx_it.c **** * @brief This function handles Undefined instruction or illegal state.
 126:Src/stm32f1xx_it.c **** */
 127:Src/stm32f1xx_it.c **** void UsageFault_Handler(void)
 128:Src/stm32f1xx_it.c **** {
 102              		.loc 1 128 0
 103              		.cfi_startproc
 104              		@ Volatile: function does not return.
 105              		@ args = 0, pretend = 0, frame = 0
 106              		@ frame_needed = 0, uses_anonymous_args = 0
 107              		@ link register save eliminated.
 108              	.L9:
 109 0000 FEE7     		b	.L9
ARM GAS  /tmp/ccbTO6ms.s 			page 5


 110              		.cfi_endproc
 111              	.LFE73:
 113 0002 00BF     		.section	.text.DebugMon_Handler,"ax",%progbits
 114              		.align	2
 115              		.global	DebugMon_Handler
 116              		.thumb
 117              		.thumb_func
 119              	DebugMon_Handler:
 120              	.LFB74:
 129:Src/stm32f1xx_it.c ****   /* USER CODE BEGIN UsageFault_IRQn 0 */
 130:Src/stm32f1xx_it.c **** 
 131:Src/stm32f1xx_it.c ****   /* USER CODE END UsageFault_IRQn 0 */
 132:Src/stm32f1xx_it.c ****   while (1)
 133:Src/stm32f1xx_it.c ****   {
 134:Src/stm32f1xx_it.c ****     /* USER CODE BEGIN W1_UsageFault_IRQn 0 */
 135:Src/stm32f1xx_it.c ****     /* USER CODE END W1_UsageFault_IRQn 0 */
 136:Src/stm32f1xx_it.c ****   }
 137:Src/stm32f1xx_it.c ****   /* USER CODE BEGIN UsageFault_IRQn 1 */
 138:Src/stm32f1xx_it.c **** 
 139:Src/stm32f1xx_it.c ****   /* USER CODE END UsageFault_IRQn 1 */
 140:Src/stm32f1xx_it.c **** }
 141:Src/stm32f1xx_it.c **** 
 142:Src/stm32f1xx_it.c **** /**
 143:Src/stm32f1xx_it.c **** * @brief This function handles Debug monitor.
 144:Src/stm32f1xx_it.c **** */
 145:Src/stm32f1xx_it.c **** void DebugMon_Handler(void)
 146:Src/stm32f1xx_it.c **** {
 121              		.loc 1 146 0
 122              		.cfi_startproc
 123              		@ args = 0, pretend = 0, frame = 0
 124              		@ frame_needed = 0, uses_anonymous_args = 0
 125              		@ link register save eliminated.
 126 0000 7047     		bx	lr
 127              		.cfi_endproc
 128              	.LFE74:
 130 0002 00BF     		.section	.text.SysTick_Handler,"ax",%progbits
 131              		.align	2
 132              		.global	SysTick_Handler
 133              		.thumb
 134              		.thumb_func
 136              	SysTick_Handler:
 137              	.LFB75:
 147:Src/stm32f1xx_it.c ****   /* USER CODE BEGIN DebugMonitor_IRQn 0 */
 148:Src/stm32f1xx_it.c **** 
 149:Src/stm32f1xx_it.c ****   /* USER CODE END DebugMonitor_IRQn 0 */
 150:Src/stm32f1xx_it.c ****   /* USER CODE BEGIN DebugMonitor_IRQn 1 */
 151:Src/stm32f1xx_it.c **** 
 152:Src/stm32f1xx_it.c ****   /* USER CODE END DebugMonitor_IRQn 1 */
 153:Src/stm32f1xx_it.c **** }
 154:Src/stm32f1xx_it.c **** 
 155:Src/stm32f1xx_it.c **** /**
 156:Src/stm32f1xx_it.c **** * @brief This function handles System tick timer.
 157:Src/stm32f1xx_it.c **** */
 158:Src/stm32f1xx_it.c **** void SysTick_Handler(void)
 159:Src/stm32f1xx_it.c **** {
 138              		.loc 1 159 0
 139              		.cfi_startproc
ARM GAS  /tmp/ccbTO6ms.s 			page 6


 140              		@ args = 0, pretend = 0, frame = 0
 141              		@ frame_needed = 0, uses_anonymous_args = 0
 142              		.loc 1 159 0
 143 0000 08B5     		push	{r3, lr}
 144              	.LCFI0:
 145              		.cfi_def_cfa_offset 8
 146              		.cfi_offset 3, -8
 147              		.cfi_offset 14, -4
 160:Src/stm32f1xx_it.c ****   /* USER CODE BEGIN SysTick_IRQn 0 */
 161:Src/stm32f1xx_it.c **** 
 162:Src/stm32f1xx_it.c ****   /* USER CODE END SysTick_IRQn 0 */
 163:Src/stm32f1xx_it.c ****   osSystickHandler();
 148              		.loc 1 163 0
 149 0002 FFF7FEFF 		bl	osSystickHandler
 150              	.LVL0:
 151 0006 08BD     		pop	{r3, pc}
 152              		.cfi_endproc
 153              	.LFE75:
 155              		.section	.text.DMA1_Channel6_IRQHandler,"ax",%progbits
 156              		.align	2
 157              		.global	DMA1_Channel6_IRQHandler
 158              		.thumb
 159              		.thumb_func
 161              	DMA1_Channel6_IRQHandler:
 162              	.LFB76:
 164:Src/stm32f1xx_it.c ****   /* USER CODE BEGIN SysTick_IRQn 1 */
 165:Src/stm32f1xx_it.c **** 
 166:Src/stm32f1xx_it.c ****   /* USER CODE END SysTick_IRQn 1 */
 167:Src/stm32f1xx_it.c **** }
 168:Src/stm32f1xx_it.c **** 
 169:Src/stm32f1xx_it.c **** /******************************************************************************/
 170:Src/stm32f1xx_it.c **** /* STM32F1xx Peripheral Interrupt Handlers                                    */
 171:Src/stm32f1xx_it.c **** /* Add here the Interrupt Handlers for the used peripherals.                  */
 172:Src/stm32f1xx_it.c **** /* For the available peripheral interrupt handler names,                      */
 173:Src/stm32f1xx_it.c **** /* please refer to the startup file (startup_stm32f1xx.s).                    */
 174:Src/stm32f1xx_it.c **** /******************************************************************************/
 175:Src/stm32f1xx_it.c **** 
 176:Src/stm32f1xx_it.c **** /**
 177:Src/stm32f1xx_it.c **** * @brief This function handles DMA1 channel6 global interrupt.
 178:Src/stm32f1xx_it.c **** */
 179:Src/stm32f1xx_it.c **** void DMA1_Channel6_IRQHandler(void)
 180:Src/stm32f1xx_it.c **** {
 163              		.loc 1 180 0
 164              		.cfi_startproc
 165              		@ args = 0, pretend = 0, frame = 0
 166              		@ frame_needed = 0, uses_anonymous_args = 0
 167 0000 08B5     		push	{r3, lr}
 168              	.LCFI1:
 169              		.cfi_def_cfa_offset 8
 170              		.cfi_offset 3, -8
 171              		.cfi_offset 14, -4
 181:Src/stm32f1xx_it.c ****   /* USER CODE BEGIN DMA1_Channel6_IRQn 0 */
 182:Src/stm32f1xx_it.c **** 
 183:Src/stm32f1xx_it.c ****   /* USER CODE END DMA1_Channel6_IRQn 0 */
 184:Src/stm32f1xx_it.c ****   HAL_DMA_IRQHandler(&hdma_usart2_rx);
 172              		.loc 1 184 0
 173 0002 0248     		ldr	r0, .L15
ARM GAS  /tmp/ccbTO6ms.s 			page 7


 174 0004 FFF7FEFF 		bl	HAL_DMA_IRQHandler
 175              	.LVL1:
 176 0008 08BD     		pop	{r3, pc}
 177              	.L16:
 178 000a 00BF     		.align	2
 179              	.L15:
 180 000c 00000000 		.word	hdma_usart2_rx
 181              		.cfi_endproc
 182              	.LFE76:
 184              		.section	.text.USB_LP_CAN1_RX0_IRQHandler,"ax",%progbits
 185              		.align	2
 186              		.global	USB_LP_CAN1_RX0_IRQHandler
 187              		.thumb
 188              		.thumb_func
 190              	USB_LP_CAN1_RX0_IRQHandler:
 191              	.LFB77:
 185:Src/stm32f1xx_it.c ****   /* USER CODE BEGIN DMA1_Channel6_IRQn 1 */
 186:Src/stm32f1xx_it.c **** 
 187:Src/stm32f1xx_it.c ****   /* USER CODE END DMA1_Channel6_IRQn 1 */
 188:Src/stm32f1xx_it.c **** }
 189:Src/stm32f1xx_it.c **** 
 190:Src/stm32f1xx_it.c **** /**
 191:Src/stm32f1xx_it.c **** * @brief This function handles USB low priority or CAN RX0 interrupts.
 192:Src/stm32f1xx_it.c **** */
 193:Src/stm32f1xx_it.c **** void USB_LP_CAN1_RX0_IRQHandler(void)
 194:Src/stm32f1xx_it.c **** {
 192              		.loc 1 194 0
 193              		.cfi_startproc
 194              		@ args = 0, pretend = 0, frame = 0
 195              		@ frame_needed = 0, uses_anonymous_args = 0
 196 0000 08B5     		push	{r3, lr}
 197              	.LCFI2:
 198              		.cfi_def_cfa_offset 8
 199              		.cfi_offset 3, -8
 200              		.cfi_offset 14, -4
 195:Src/stm32f1xx_it.c ****   /* USER CODE BEGIN USB_LP_CAN1_RX0_IRQn 0 */
 196:Src/stm32f1xx_it.c **** 
 197:Src/stm32f1xx_it.c ****   /* USER CODE END USB_LP_CAN1_RX0_IRQn 0 */
 198:Src/stm32f1xx_it.c ****   HAL_CAN_IRQHandler(&hcan);
 201              		.loc 1 198 0
 202 0002 0248     		ldr	r0, .L19
 203 0004 FFF7FEFF 		bl	HAL_CAN_IRQHandler
 204              	.LVL2:
 205 0008 08BD     		pop	{r3, pc}
 206              	.L20:
 207 000a 00BF     		.align	2
 208              	.L19:
 209 000c 00000000 		.word	hcan
 210              		.cfi_endproc
 211              	.LFE77:
 213              		.section	.text.TIM4_IRQHandler,"ax",%progbits
 214              		.align	2
 215              		.global	TIM4_IRQHandler
 216              		.thumb
 217              		.thumb_func
 219              	TIM4_IRQHandler:
 220              	.LFB78:
ARM GAS  /tmp/ccbTO6ms.s 			page 8


 199:Src/stm32f1xx_it.c ****   /* USER CODE BEGIN USB_LP_CAN1_RX0_IRQn 1 */
 200:Src/stm32f1xx_it.c **** 
 201:Src/stm32f1xx_it.c ****   /* USER CODE END USB_LP_CAN1_RX0_IRQn 1 */
 202:Src/stm32f1xx_it.c **** }
 203:Src/stm32f1xx_it.c **** 
 204:Src/stm32f1xx_it.c **** /**
 205:Src/stm32f1xx_it.c **** * @brief This function handles TIM4 global interrupt.
 206:Src/stm32f1xx_it.c **** */
 207:Src/stm32f1xx_it.c **** void TIM4_IRQHandler(void)
 208:Src/stm32f1xx_it.c **** {
 221              		.loc 1 208 0
 222              		.cfi_startproc
 223              		@ args = 0, pretend = 0, frame = 0
 224              		@ frame_needed = 0, uses_anonymous_args = 0
 225 0000 08B5     		push	{r3, lr}
 226              	.LCFI3:
 227              		.cfi_def_cfa_offset 8
 228              		.cfi_offset 3, -8
 229              		.cfi_offset 14, -4
 209:Src/stm32f1xx_it.c ****   /* USER CODE BEGIN TIM4_IRQn 0 */
 210:Src/stm32f1xx_it.c **** 
 211:Src/stm32f1xx_it.c ****   /* USER CODE END TIM4_IRQn 0 */
 212:Src/stm32f1xx_it.c ****   HAL_TIM_IRQHandler(&htim4);
 230              		.loc 1 212 0
 231 0002 0248     		ldr	r0, .L23
 232 0004 FFF7FEFF 		bl	HAL_TIM_IRQHandler
 233              	.LVL3:
 234 0008 08BD     		pop	{r3, pc}
 235              	.L24:
 236 000a 00BF     		.align	2
 237              	.L23:
 238 000c 00000000 		.word	htim4
 239              		.cfi_endproc
 240              	.LFE78:
 242              		.section	.text.USART1_IRQHandler,"ax",%progbits
 243              		.align	2
 244              		.global	USART1_IRQHandler
 245              		.thumb
 246              		.thumb_func
 248              	USART1_IRQHandler:
 249              	.LFB79:
 213:Src/stm32f1xx_it.c ****   /* USER CODE BEGIN TIM4_IRQn 1 */
 214:Src/stm32f1xx_it.c **** 
 215:Src/stm32f1xx_it.c ****   /* USER CODE END TIM4_IRQn 1 */
 216:Src/stm32f1xx_it.c **** }
 217:Src/stm32f1xx_it.c **** 
 218:Src/stm32f1xx_it.c **** /**
 219:Src/stm32f1xx_it.c **** * @brief This function handles USART1 global interrupt.
 220:Src/stm32f1xx_it.c **** */
 221:Src/stm32f1xx_it.c **** void USART1_IRQHandler(void)
 222:Src/stm32f1xx_it.c **** {
 250              		.loc 1 222 0
 251              		.cfi_startproc
 252              		@ args = 0, pretend = 0, frame = 0
 253              		@ frame_needed = 0, uses_anonymous_args = 0
 254 0000 08B5     		push	{r3, lr}
 255              	.LCFI4:
ARM GAS  /tmp/ccbTO6ms.s 			page 9


 256              		.cfi_def_cfa_offset 8
 257              		.cfi_offset 3, -8
 258              		.cfi_offset 14, -4
 223:Src/stm32f1xx_it.c ****   /* USER CODE BEGIN USART1_IRQn 0 */
 224:Src/stm32f1xx_it.c **** 
 225:Src/stm32f1xx_it.c ****   /* USER CODE END USART1_IRQn 0 */
 226:Src/stm32f1xx_it.c ****   HAL_UART_IRQHandler(&huart1);
 259              		.loc 1 226 0
 260 0002 0248     		ldr	r0, .L27
 261 0004 FFF7FEFF 		bl	HAL_UART_IRQHandler
 262              	.LVL4:
 263 0008 08BD     		pop	{r3, pc}
 264              	.L28:
 265 000a 00BF     		.align	2
 266              	.L27:
 267 000c 00000000 		.word	huart1
 268              		.cfi_endproc
 269              	.LFE79:
 271              		.section	.text.USART2_IRQHandler,"ax",%progbits
 272              		.align	2
 273              		.global	USART2_IRQHandler
 274              		.thumb
 275              		.thumb_func
 277              	USART2_IRQHandler:
 278              	.LFB80:
 227:Src/stm32f1xx_it.c ****   /* USER CODE BEGIN USART1_IRQn 1 */
 228:Src/stm32f1xx_it.c **** 
 229:Src/stm32f1xx_it.c ****   /* USER CODE END USART1_IRQn 1 */
 230:Src/stm32f1xx_it.c **** }
 231:Src/stm32f1xx_it.c **** 
 232:Src/stm32f1xx_it.c **** /**
 233:Src/stm32f1xx_it.c **** * @brief This function handles USART2 global interrupt.
 234:Src/stm32f1xx_it.c **** */
 235:Src/stm32f1xx_it.c **** void USART2_IRQHandler(void)
 236:Src/stm32f1xx_it.c **** {
 279              		.loc 1 236 0
 280              		.cfi_startproc
 281              		@ args = 0, pretend = 0, frame = 8
 282              		@ frame_needed = 0, uses_anonymous_args = 0
 283 0000 10B5     		push	{r4, lr}
 284              	.LCFI5:
 285              		.cfi_def_cfa_offset 8
 286              		.cfi_offset 4, -8
 287              		.cfi_offset 14, -4
 288 0002 82B0     		sub	sp, sp, #8
 289              	.LCFI6:
 290              		.cfi_def_cfa_offset 16
 237:Src/stm32f1xx_it.c ****   /* USER CODE BEGIN USART2_IRQn 0 */
 238:Src/stm32f1xx_it.c **** 
 239:Src/stm32f1xx_it.c ****   /* USER CODE END USART2_IRQn 0 */
 240:Src/stm32f1xx_it.c ****   HAL_UART_IRQHandler(&huart2);
 291              		.loc 1 240 0
 292 0004 104C     		ldr	r4, .L32
 293 0006 2046     		mov	r0, r4
 294 0008 FFF7FEFF 		bl	HAL_UART_IRQHandler
 295              	.LVL5:
 241:Src/stm32f1xx_it.c ****   /* USER CODE BEGIN USART2_IRQn 1 */
ARM GAS  /tmp/ccbTO6ms.s 			page 10


 242:Src/stm32f1xx_it.c ****   uint32_t temp;
 243:Src/stm32f1xx_it.c ****   /*        如果是串口2中断        */
 244:Src/stm32f1xx_it.c ****   if(USART2 == huart2.Instance)
 296              		.loc 1 244 0
 297 000c 2368     		ldr	r3, [r4]
 298 000e 0F4A     		ldr	r2, .L32+4
 299 0010 9342     		cmp	r3, r2
 300 0012 16D1     		bne	.L29
 245:Src/stm32f1xx_it.c ****   {        /* 如果是串口2IDLE中断        */
 246:Src/stm32f1xx_it.c ****     if(RESET != __HAL_UART_GET_FLAG(&huart2,UART_FLAG_IDLE))
 301              		.loc 1 246 0
 302 0014 1A68     		ldr	r2, [r3]
 303 0016 12F0100F 		tst	r2, #16
 304 001a 12D0     		beq	.L29
 305              	.LBB2:
 247:Src/stm32f1xx_it.c ****     {
 248:Src/stm32f1xx_it.c ****       /*        清除中断标志        */
 249:Src/stm32f1xx_it.c ****       __HAL_UART_CLEAR_IDLEFLAG(&huart2);
 306              		.loc 1 249 0
 307 001c 0022     		movs	r2, #0
 308 001e 0192     		str	r2, [sp, #4]
 309 0020 1A68     		ldr	r2, [r3]
 310 0022 0192     		str	r2, [sp, #4]
 311 0024 5B68     		ldr	r3, [r3, #4]
 312 0026 0193     		str	r3, [sp, #4]
 313 0028 019B     		ldr	r3, [sp, #4]
 314              	.LBE2:
 250:Src/stm32f1xx_it.c ****       /*        停止DMA接收        */
 251:Src/stm32f1xx_it.c ****       HAL_UART_DMAStop(&huart2);
 315              		.loc 1 251 0
 316 002a 2046     		mov	r0, r4
 317 002c FFF7FEFF 		bl	HAL_UART_DMAStop
 318              	.LVL6:
 252:Src/stm32f1xx_it.c ****       /*        获取DMA当前还有多少未填充        */
 253:Src/stm32f1xx_it.c ****       temp  = __HAL_DMA_GET_COUNTER(&hdma_usart2_rx);
 319              		.loc 1 253 0
 320 0030 074B     		ldr	r3, .L32+8
 321 0032 1B68     		ldr	r3, [r3]
 322 0034 5B68     		ldr	r3, [r3, #4]
 323              	.LVL7:
 254:Src/stm32f1xx_it.c ****       /*        计算串口接收到的数据个数        */
 255:Src/stm32f1xx_it.c ****       Rx_len =  BUFFERSIZE - temp;
 324              		.loc 1 255 0
 325 0036 DB43     		mvns	r3, r3
 326              	.LVL8:
 327 0038 064A     		ldr	r2, .L32+12
 328 003a 1370     		strb	r3, [r2]
 256:Src/stm32f1xx_it.c ****       recv_end_flag = 1;
 329              		.loc 1 256 0
 330 003c 0122     		movs	r2, #1
 331 003e 064B     		ldr	r3, .L32+16
 332              	.LVL9:
 333 0040 1A70     		strb	r2, [r3]
 334              	.L29:
 257:Src/stm32f1xx_it.c ****     }
 258:Src/stm32f1xx_it.c ****   }
 259:Src/stm32f1xx_it.c **** 
ARM GAS  /tmp/ccbTO6ms.s 			page 11


 260:Src/stm32f1xx_it.c ****   /* USER CODE END USART2_IRQn 1 */
 261:Src/stm32f1xx_it.c **** }
 335              		.loc 1 261 0
 336 0042 02B0     		add	sp, sp, #8
 337              	.LCFI7:
 338              		.cfi_def_cfa_offset 8
 339              		@ sp needed
 340 0044 10BD     		pop	{r4, pc}
 341              	.L33:
 342 0046 00BF     		.align	2
 343              	.L32:
 344 0048 00000000 		.word	huart2
 345 004c 00440040 		.word	1073759232
 346 0050 00000000 		.word	hdma_usart2_rx
 347 0054 00000000 		.word	Rx_len
 348 0058 00000000 		.word	recv_end_flag
 349              		.cfi_endproc
 350              	.LFE80:
 352              		.section	.text.USART3_IRQHandler,"ax",%progbits
 353              		.align	2
 354              		.global	USART3_IRQHandler
 355              		.thumb
 356              		.thumb_func
 358              	USART3_IRQHandler:
 359              	.LFB81:
 262:Src/stm32f1xx_it.c **** 
 263:Src/stm32f1xx_it.c **** /**
 264:Src/stm32f1xx_it.c **** * @brief This function handles USART3 global interrupt.
 265:Src/stm32f1xx_it.c **** */
 266:Src/stm32f1xx_it.c **** void USART3_IRQHandler(void)
 267:Src/stm32f1xx_it.c **** {
 360              		.loc 1 267 0
 361              		.cfi_startproc
 362              		@ args = 0, pretend = 0, frame = 0
 363              		@ frame_needed = 0, uses_anonymous_args = 0
 364 0000 08B5     		push	{r3, lr}
 365              	.LCFI8:
 366              		.cfi_def_cfa_offset 8
 367              		.cfi_offset 3, -8
 368              		.cfi_offset 14, -4
 268:Src/stm32f1xx_it.c ****   /* USER CODE BEGIN USART3_IRQn 0 */
 269:Src/stm32f1xx_it.c **** 
 270:Src/stm32f1xx_it.c ****   /* USER CODE END USART3_IRQn 0 */
 271:Src/stm32f1xx_it.c ****   HAL_UART_IRQHandler(&huart3);
 369              		.loc 1 271 0
 370 0002 0248     		ldr	r0, .L36
 371 0004 FFF7FEFF 		bl	HAL_UART_IRQHandler
 372              	.LVL10:
 373 0008 08BD     		pop	{r3, pc}
 374              	.L37:
 375 000a 00BF     		.align	2
 376              	.L36:
 377 000c 00000000 		.word	huart3
 378              		.cfi_endproc
 379              	.LFE81:
 381              		.text
 382              	.Letext0:
ARM GAS  /tmp/ccbTO6ms.s 			page 12


 383              		.file 2 "/home/user/Library/gcc-arm-none-eabi-5_4-2016q3/arm-none-eabi/include/machine/_default_ty
 384              		.file 3 "/home/user/Library/gcc-arm-none-eabi-5_4-2016q3/arm-none-eabi/include/sys/_stdint.h"
 385              		.file 4 "Drivers/CMSIS/Device/ST/STM32F1xx/Include/stm32f103xe.h"
 386              		.file 5 "Drivers/CMSIS/Device/ST/STM32F1xx/Include/stm32f1xx.h"
 387              		.file 6 "Drivers/STM32F1xx_HAL_Driver/Inc/stm32f1xx_hal_def.h"
 388              		.file 7 "Drivers/STM32F1xx_HAL_Driver/Inc/stm32f1xx_hal_dma.h"
 389              		.file 8 "Drivers/STM32F1xx_HAL_Driver/Inc/stm32f1xx_hal_can.h"
 390              		.file 9 "Drivers/STM32F1xx_HAL_Driver/Inc/stm32f1xx_hal_tim.h"
 391              		.file 10 "Drivers/STM32F1xx_HAL_Driver/Inc/stm32f1xx_hal_uart.h"
 392              		.file 11 "Drivers/CMSIS/Include/core_cm3.h"
 393              		.file 12 "Middlewares/Third_Party/FreeRTOS/Source/CMSIS_RTOS/cmsis_os.h"
ARM GAS  /tmp/ccbTO6ms.s 			page 13

