ARM GAS  /tmp/ccoAiFXp.s 			page 1


   1              		.syntax unified
   2              		.cpu cortex-m3
   3              		.fpu softvfp
   4              		.eabi_attribute 20, 1
   5              		.eabi_attribute 21, 1
   6              		.eabi_attribute 23, 3
   7              		.eabi_attribute 24, 1
   8              		.eabi_attribute 25, 1
   9              		.eabi_attribute 26, 1
  10              		.eabi_attribute 30, 1
  11              		.eabi_attribute 34, 1
  12              		.eabi_attribute 18, 4
  13              		.thumb
  14              		.syntax unified
  15              		.file	"stm32f1xx_hal_msp.c"
  16              		.text
  17              	.Ltext0:
  18              		.cfi_sections	.debug_frame
  19              		.section	.text.HAL_MspInit,"ax",%progbits
  20              		.align	2
  21              		.global	HAL_MspInit
  22              		.thumb
  23              		.thumb_func
  25              	HAL_MspInit:
  26              	.LFB64:
  27              		.file 1 "Src/stm32f1xx_hal_msp.c"
   1:Src/stm32f1xx_hal_msp.c **** /**
   2:Src/stm32f1xx_hal_msp.c ****   ******************************************************************************
   3:Src/stm32f1xx_hal_msp.c ****   * File Name          : stm32f1xx_hal_msp.c
   4:Src/stm32f1xx_hal_msp.c ****   * Description        : This file provides code for the MSP Initialization 
   5:Src/stm32f1xx_hal_msp.c ****   *                      and de-Initialization codes.
   6:Src/stm32f1xx_hal_msp.c ****   ******************************************************************************
   7:Src/stm32f1xx_hal_msp.c ****   * This notice applies to any and all portions of this file
   8:Src/stm32f1xx_hal_msp.c ****   * that are not between comment pairs USER CODE BEGIN and
   9:Src/stm32f1xx_hal_msp.c ****   * USER CODE END. Other portions of this file, whether 
  10:Src/stm32f1xx_hal_msp.c ****   * inserted by the user or by software development tools
  11:Src/stm32f1xx_hal_msp.c ****   * are owned by their respective copyright owners.
  12:Src/stm32f1xx_hal_msp.c ****   *
  13:Src/stm32f1xx_hal_msp.c ****   * Copyright (c) 2019 STMicroelectronics International N.V. 
  14:Src/stm32f1xx_hal_msp.c ****   * All rights reserved.
  15:Src/stm32f1xx_hal_msp.c ****   *
  16:Src/stm32f1xx_hal_msp.c ****   * Redistribution and use in source and binary forms, with or without 
  17:Src/stm32f1xx_hal_msp.c ****   * modification, are permitted, provided that the following conditions are met:
  18:Src/stm32f1xx_hal_msp.c ****   *
  19:Src/stm32f1xx_hal_msp.c ****   * 1. Redistribution of source code must retain the above copyright notice, 
  20:Src/stm32f1xx_hal_msp.c ****   *    this list of conditions and the following disclaimer.
  21:Src/stm32f1xx_hal_msp.c ****   * 2. Redistributions in binary form must reproduce the above copyright notice,
  22:Src/stm32f1xx_hal_msp.c ****   *    this list of conditions and the following disclaimer in the documentation
  23:Src/stm32f1xx_hal_msp.c ****   *    and/or other materials provided with the distribution.
  24:Src/stm32f1xx_hal_msp.c ****   * 3. Neither the name of STMicroelectronics nor the names of other 
  25:Src/stm32f1xx_hal_msp.c ****   *    contributors to this software may be used to endorse or promote products 
  26:Src/stm32f1xx_hal_msp.c ****   *    derived from this software without specific written permission.
  27:Src/stm32f1xx_hal_msp.c ****   * 4. This software, including modifications and/or derivative works of this 
  28:Src/stm32f1xx_hal_msp.c ****   *    software, must execute solely and exclusively on microcontroller or
  29:Src/stm32f1xx_hal_msp.c ****   *    microprocessor devices manufactured by or for STMicroelectronics.
  30:Src/stm32f1xx_hal_msp.c ****   * 5. Redistribution and use of this software other than as permitted under 
  31:Src/stm32f1xx_hal_msp.c ****   *    this license is void and will automatically terminate your rights under 
ARM GAS  /tmp/ccoAiFXp.s 			page 2


  32:Src/stm32f1xx_hal_msp.c ****   *    this license. 
  33:Src/stm32f1xx_hal_msp.c ****   *
  34:Src/stm32f1xx_hal_msp.c ****   * THIS SOFTWARE IS PROVIDED BY STMICROELECTRONICS AND CONTRIBUTORS "AS IS" 
  35:Src/stm32f1xx_hal_msp.c ****   * AND ANY EXPRESS, IMPLIED OR STATUTORY WARRANTIES, INCLUDING, BUT NOT 
  36:Src/stm32f1xx_hal_msp.c ****   * LIMITED TO, THE IMPLIED WARRANTIES OF MERCHANTABILITY, FITNESS FOR A 
  37:Src/stm32f1xx_hal_msp.c ****   * PARTICULAR PURPOSE AND NON-INFRINGEMENT OF THIRD PARTY INTELLECTUAL PROPERTY
  38:Src/stm32f1xx_hal_msp.c ****   * RIGHTS ARE DISCLAIMED TO THE FULLEST EXTENT PERMITTED BY LAW. IN NO EVENT 
  39:Src/stm32f1xx_hal_msp.c ****   * SHALL STMICROELECTRONICS OR CONTRIBUTORS BE LIABLE FOR ANY DIRECT, INDIRECT,
  40:Src/stm32f1xx_hal_msp.c ****   * INCIDENTAL, SPECIAL, EXEMPLARY, OR CONSEQUENTIAL DAMAGES (INCLUDING, BUT NOT
  41:Src/stm32f1xx_hal_msp.c ****   * LIMITED TO, PROCUREMENT OF SUBSTITUTE GOODS OR SERVICES; LOSS OF USE, DATA, 
  42:Src/stm32f1xx_hal_msp.c ****   * OR PROFITS; OR BUSINESS INTERRUPTION) HOWEVER CAUSED AND ON ANY THEORY OF 
  43:Src/stm32f1xx_hal_msp.c ****   * LIABILITY, WHETHER IN CONTRACT, STRICT LIABILITY, OR TORT (INCLUDING 
  44:Src/stm32f1xx_hal_msp.c ****   * NEGLIGENCE OR OTHERWISE) ARISING IN ANY WAY OUT OF THE USE OF THIS SOFTWARE,
  45:Src/stm32f1xx_hal_msp.c ****   * EVEN IF ADVISED OF THE POSSIBILITY OF SUCH DAMAGE.
  46:Src/stm32f1xx_hal_msp.c ****   *
  47:Src/stm32f1xx_hal_msp.c ****   ******************************************************************************
  48:Src/stm32f1xx_hal_msp.c ****   */
  49:Src/stm32f1xx_hal_msp.c **** /* Includes ------------------------------------------------------------------*/
  50:Src/stm32f1xx_hal_msp.c **** #include "stm32f1xx_hal.h"
  51:Src/stm32f1xx_hal_msp.c **** 
  52:Src/stm32f1xx_hal_msp.c **** extern DMA_HandleTypeDef hdma_usart2_rx;
  53:Src/stm32f1xx_hal_msp.c **** 
  54:Src/stm32f1xx_hal_msp.c **** extern void _Error_Handler(char *, int);
  55:Src/stm32f1xx_hal_msp.c **** /* USER CODE BEGIN 0 */
  56:Src/stm32f1xx_hal_msp.c **** 
  57:Src/stm32f1xx_hal_msp.c **** /* USER CODE END 0 */
  58:Src/stm32f1xx_hal_msp.c **** /**
  59:Src/stm32f1xx_hal_msp.c ****   * Initializes the Global MSP.
  60:Src/stm32f1xx_hal_msp.c ****   */
  61:Src/stm32f1xx_hal_msp.c **** void HAL_MspInit(void)
  62:Src/stm32f1xx_hal_msp.c **** {
  28              		.loc 1 62 0
  29              		.cfi_startproc
  30              		@ args = 0, pretend = 0, frame = 8
  31              		@ frame_needed = 0, uses_anonymous_args = 0
  32 0000 00B5     		push	{lr}
  33              	.LCFI0:
  34              		.cfi_def_cfa_offset 4
  35              		.cfi_offset 14, -4
  36 0002 83B0     		sub	sp, sp, #12
  37              	.LCFI1:
  38              		.cfi_def_cfa_offset 16
  39              	.LBB2:
  63:Src/stm32f1xx_hal_msp.c ****   /* USER CODE BEGIN MspInit 0 */
  64:Src/stm32f1xx_hal_msp.c **** 
  65:Src/stm32f1xx_hal_msp.c ****   /* USER CODE END MspInit 0 */
  66:Src/stm32f1xx_hal_msp.c **** 
  67:Src/stm32f1xx_hal_msp.c ****   __HAL_RCC_AFIO_CLK_ENABLE();
  40              		.loc 1 67 0
  41 0004 244B     		ldr	r3, .L3
  42 0006 9A69     		ldr	r2, [r3, #24]
  43 0008 42F00102 		orr	r2, r2, #1
  44 000c 9A61     		str	r2, [r3, #24]
  45 000e 9A69     		ldr	r2, [r3, #24]
  46 0010 02F00102 		and	r2, r2, #1
  47 0014 0092     		str	r2, [sp]
  48 0016 009A     		ldr	r2, [sp]
ARM GAS  /tmp/ccoAiFXp.s 			page 3


  49              	.LBE2:
  50              	.LBB3:
  68:Src/stm32f1xx_hal_msp.c ****   __HAL_RCC_PWR_CLK_ENABLE();
  51              		.loc 1 68 0
  52 0018 DA69     		ldr	r2, [r3, #28]
  53 001a 42F08052 		orr	r2, r2, #268435456
  54 001e DA61     		str	r2, [r3, #28]
  55 0020 DB69     		ldr	r3, [r3, #28]
  56 0022 03F08053 		and	r3, r3, #268435456
  57 0026 0193     		str	r3, [sp, #4]
  58 0028 019B     		ldr	r3, [sp, #4]
  59              	.LBE3:
  69:Src/stm32f1xx_hal_msp.c **** 
  70:Src/stm32f1xx_hal_msp.c ****   HAL_NVIC_SetPriorityGrouping(NVIC_PRIORITYGROUP_4);
  60              		.loc 1 70 0
  61 002a 0320     		movs	r0, #3
  62 002c FFF7FEFF 		bl	HAL_NVIC_SetPriorityGrouping
  63              	.LVL0:
  71:Src/stm32f1xx_hal_msp.c **** 
  72:Src/stm32f1xx_hal_msp.c ****   /* System interrupt init*/
  73:Src/stm32f1xx_hal_msp.c ****   /* MemoryManagement_IRQn interrupt configuration */
  74:Src/stm32f1xx_hal_msp.c ****   HAL_NVIC_SetPriority(MemoryManagement_IRQn, 0, 0);
  64              		.loc 1 74 0
  65 0030 0022     		movs	r2, #0
  66 0032 1146     		mov	r1, r2
  67 0034 6FF00B00 		mvn	r0, #11
  68 0038 FFF7FEFF 		bl	HAL_NVIC_SetPriority
  69              	.LVL1:
  75:Src/stm32f1xx_hal_msp.c ****   /* BusFault_IRQn interrupt configuration */
  76:Src/stm32f1xx_hal_msp.c ****   HAL_NVIC_SetPriority(BusFault_IRQn, 0, 0);
  70              		.loc 1 76 0
  71 003c 0022     		movs	r2, #0
  72 003e 1146     		mov	r1, r2
  73 0040 6FF00A00 		mvn	r0, #10
  74 0044 FFF7FEFF 		bl	HAL_NVIC_SetPriority
  75              	.LVL2:
  77:Src/stm32f1xx_hal_msp.c ****   /* UsageFault_IRQn interrupt configuration */
  78:Src/stm32f1xx_hal_msp.c ****   HAL_NVIC_SetPriority(UsageFault_IRQn, 0, 0);
  76              		.loc 1 78 0
  77 0048 0022     		movs	r2, #0
  78 004a 1146     		mov	r1, r2
  79 004c 6FF00900 		mvn	r0, #9
  80 0050 FFF7FEFF 		bl	HAL_NVIC_SetPriority
  81              	.LVL3:
  79:Src/stm32f1xx_hal_msp.c ****   /* SVCall_IRQn interrupt configuration */
  80:Src/stm32f1xx_hal_msp.c ****   HAL_NVIC_SetPriority(SVCall_IRQn, 0, 0);
  82              		.loc 1 80 0
  83 0054 0022     		movs	r2, #0
  84 0056 1146     		mov	r1, r2
  85 0058 6FF00400 		mvn	r0, #4
  86 005c FFF7FEFF 		bl	HAL_NVIC_SetPriority
  87              	.LVL4:
  81:Src/stm32f1xx_hal_msp.c ****   /* DebugMonitor_IRQn interrupt configuration */
  82:Src/stm32f1xx_hal_msp.c ****   HAL_NVIC_SetPriority(DebugMonitor_IRQn, 0, 0);
  88              		.loc 1 82 0
  89 0060 0022     		movs	r2, #0
  90 0062 1146     		mov	r1, r2
ARM GAS  /tmp/ccoAiFXp.s 			page 4


  91 0064 6FF00300 		mvn	r0, #3
  92 0068 FFF7FEFF 		bl	HAL_NVIC_SetPriority
  93              	.LVL5:
  83:Src/stm32f1xx_hal_msp.c ****   /* PendSV_IRQn interrupt configuration */
  84:Src/stm32f1xx_hal_msp.c ****   HAL_NVIC_SetPriority(PendSV_IRQn, 15, 0);
  94              		.loc 1 84 0
  95 006c 0022     		movs	r2, #0
  96 006e 0F21     		movs	r1, #15
  97 0070 6FF00100 		mvn	r0, #1
  98 0074 FFF7FEFF 		bl	HAL_NVIC_SetPriority
  99              	.LVL6:
  85:Src/stm32f1xx_hal_msp.c ****   /* SysTick_IRQn interrupt configuration */
  86:Src/stm32f1xx_hal_msp.c ****   HAL_NVIC_SetPriority(SysTick_IRQn, 15, 0);
 100              		.loc 1 86 0
 101 0078 0022     		movs	r2, #0
 102 007a 0F21     		movs	r1, #15
 103 007c 4FF0FF30 		mov	r0, #-1
 104 0080 FFF7FEFF 		bl	HAL_NVIC_SetPriority
 105              	.LVL7:
 106              	.LBB4:
  87:Src/stm32f1xx_hal_msp.c **** 
  88:Src/stm32f1xx_hal_msp.c ****     /**NOJTAG: JTAG-DP Disabled and SW-DP Enabled 
  89:Src/stm32f1xx_hal_msp.c ****     */
  90:Src/stm32f1xx_hal_msp.c ****   __HAL_AFIO_REMAP_SWJ_NOJTAG();
 107              		.loc 1 90 0
 108 0084 054A     		ldr	r2, .L3+4
 109 0086 5368     		ldr	r3, [r2, #4]
 110              	.LVL8:
 111 0088 23F0E063 		bic	r3, r3, #117440512
 112              	.LVL9:
 113 008c 43F00073 		orr	r3, r3, #33554432
 114              	.LVL10:
 115 0090 5360     		str	r3, [r2, #4]
 116              	.LBE4:
  91:Src/stm32f1xx_hal_msp.c **** 
  92:Src/stm32f1xx_hal_msp.c ****   /* USER CODE BEGIN MspInit 1 */
  93:Src/stm32f1xx_hal_msp.c **** 
  94:Src/stm32f1xx_hal_msp.c ****   /* USER CODE END MspInit 1 */
  95:Src/stm32f1xx_hal_msp.c **** }
 117              		.loc 1 95 0
 118 0092 03B0     		add	sp, sp, #12
 119              	.LCFI2:
 120              		.cfi_def_cfa_offset 4
 121              		@ sp needed
 122 0094 5DF804FB 		ldr	pc, [sp], #4
 123              	.L4:
 124              		.align	2
 125              	.L3:
 126 0098 00100240 		.word	1073876992
 127 009c 00000140 		.word	1073807360
 128              		.cfi_endproc
 129              	.LFE64:
 131              		.section	.text.HAL_CAN_MspInit,"ax",%progbits
 132              		.align	2
 133              		.global	HAL_CAN_MspInit
 134              		.thumb
 135              		.thumb_func
ARM GAS  /tmp/ccoAiFXp.s 			page 5


 137              	HAL_CAN_MspInit:
 138              	.LFB65:
  96:Src/stm32f1xx_hal_msp.c **** 
  97:Src/stm32f1xx_hal_msp.c **** void HAL_CAN_MspInit(CAN_HandleTypeDef* hcan)
  98:Src/stm32f1xx_hal_msp.c **** {
 139              		.loc 1 98 0
 140              		.cfi_startproc
 141              		@ args = 0, pretend = 0, frame = 24
 142              		@ frame_needed = 0, uses_anonymous_args = 0
 143              	.LVL11:
  99:Src/stm32f1xx_hal_msp.c **** 
 100:Src/stm32f1xx_hal_msp.c ****   GPIO_InitTypeDef GPIO_InitStruct;
 101:Src/stm32f1xx_hal_msp.c ****   if(hcan->Instance==CAN1)
 144              		.loc 1 101 0
 145 0000 0268     		ldr	r2, [r0]
 146 0002 1D4B     		ldr	r3, .L9
 147 0004 9A42     		cmp	r2, r3
 148 0006 35D1     		bne	.L8
  98:Src/stm32f1xx_hal_msp.c **** 
 149              		.loc 1 98 0
 150 0008 30B5     		push	{r4, r5, lr}
 151              	.LCFI3:
 152              		.cfi_def_cfa_offset 12
 153              		.cfi_offset 4, -12
 154              		.cfi_offset 5, -8
 155              		.cfi_offset 14, -4
 156 000a 87B0     		sub	sp, sp, #28
 157              	.LCFI4:
 158              		.cfi_def_cfa_offset 40
 159              	.LBB5:
 102:Src/stm32f1xx_hal_msp.c ****   {
 103:Src/stm32f1xx_hal_msp.c ****   /* USER CODE BEGIN CAN1_MspInit 0 */
 104:Src/stm32f1xx_hal_msp.c **** 
 105:Src/stm32f1xx_hal_msp.c ****   /* USER CODE END CAN1_MspInit 0 */
 106:Src/stm32f1xx_hal_msp.c ****     /* Peripheral clock enable */
 107:Src/stm32f1xx_hal_msp.c ****     __HAL_RCC_CAN1_CLK_ENABLE();
 160              		.loc 1 107 0
 161 000c 03F5D633 		add	r3, r3, #109568
 162 0010 DA69     		ldr	r2, [r3, #28]
 163 0012 42F00072 		orr	r2, r2, #33554432
 164 0016 DA61     		str	r2, [r3, #28]
 165 0018 DB69     		ldr	r3, [r3, #28]
 166 001a 03F00073 		and	r3, r3, #33554432
 167 001e 0193     		str	r3, [sp, #4]
 168 0020 019B     		ldr	r3, [sp, #4]
 169              	.LBE5:
 108:Src/stm32f1xx_hal_msp.c ****   
 109:Src/stm32f1xx_hal_msp.c ****     /**CAN GPIO Configuration    
 110:Src/stm32f1xx_hal_msp.c ****     PB8     ------> CAN_RX
 111:Src/stm32f1xx_hal_msp.c ****     PB9     ------> CAN_TX 
 112:Src/stm32f1xx_hal_msp.c ****     */
 113:Src/stm32f1xx_hal_msp.c ****     GPIO_InitStruct.Pin = GPIO_PIN_8;
 170              		.loc 1 113 0
 171 0022 4FF48073 		mov	r3, #256
 172 0026 0293     		str	r3, [sp, #8]
 114:Src/stm32f1xx_hal_msp.c ****     GPIO_InitStruct.Mode = GPIO_MODE_INPUT;
 173              		.loc 1 114 0
ARM GAS  /tmp/ccoAiFXp.s 			page 6


 174 0028 0024     		movs	r4, #0
 175 002a 0394     		str	r4, [sp, #12]
 115:Src/stm32f1xx_hal_msp.c ****     GPIO_InitStruct.Pull = GPIO_NOPULL;
 176              		.loc 1 115 0
 177 002c 0494     		str	r4, [sp, #16]
 116:Src/stm32f1xx_hal_msp.c ****     HAL_GPIO_Init(GPIOB, &GPIO_InitStruct);
 178              		.loc 1 116 0
 179 002e 134D     		ldr	r5, .L9+4
 180 0030 02A9     		add	r1, sp, #8
 181 0032 2846     		mov	r0, r5
 182              	.LVL12:
 183 0034 FFF7FEFF 		bl	HAL_GPIO_Init
 184              	.LVL13:
 117:Src/stm32f1xx_hal_msp.c **** 
 118:Src/stm32f1xx_hal_msp.c ****     GPIO_InitStruct.Pin = GPIO_PIN_9;
 185              		.loc 1 118 0
 186 0038 4FF40073 		mov	r3, #512
 187 003c 0293     		str	r3, [sp, #8]
 119:Src/stm32f1xx_hal_msp.c ****     GPIO_InitStruct.Mode = GPIO_MODE_AF_PP;
 188              		.loc 1 119 0
 189 003e 0223     		movs	r3, #2
 190 0040 0393     		str	r3, [sp, #12]
 120:Src/stm32f1xx_hal_msp.c ****     GPIO_InitStruct.Speed = GPIO_SPEED_FREQ_HIGH;
 191              		.loc 1 120 0
 192 0042 0323     		movs	r3, #3
 193 0044 0593     		str	r3, [sp, #20]
 121:Src/stm32f1xx_hal_msp.c ****     HAL_GPIO_Init(GPIOB, &GPIO_InitStruct);
 194              		.loc 1 121 0
 195 0046 02A9     		add	r1, sp, #8
 196 0048 2846     		mov	r0, r5
 197 004a FFF7FEFF 		bl	HAL_GPIO_Init
 198              	.LVL14:
 199              	.LBB6:
 122:Src/stm32f1xx_hal_msp.c **** 
 123:Src/stm32f1xx_hal_msp.c ****     __HAL_AFIO_REMAP_CAN1_2();
 200              		.loc 1 123 0
 201 004e 0C4A     		ldr	r2, .L9+8
 202 0050 5368     		ldr	r3, [r2, #4]
 203              	.LVL15:
 204 0052 23F4C043 		bic	r3, r3, #24576
 205              	.LVL16:
 206 0056 43F0E063 		orr	r3, r3, #117440512
 207              	.LVL17:
 208 005a 43F48043 		orr	r3, r3, #16384
 209              	.LVL18:
 210 005e 5360     		str	r3, [r2, #4]
 211              	.LBE6:
 124:Src/stm32f1xx_hal_msp.c **** 
 125:Src/stm32f1xx_hal_msp.c ****     /* CAN1 interrupt Init */
 126:Src/stm32f1xx_hal_msp.c ****     HAL_NVIC_SetPriority(USB_LP_CAN1_RX0_IRQn, 5, 0);
 212              		.loc 1 126 0
 213 0060 2246     		mov	r2, r4
 214 0062 0521     		movs	r1, #5
 215 0064 1420     		movs	r0, #20
 216 0066 FFF7FEFF 		bl	HAL_NVIC_SetPriority
 217              	.LVL19:
 127:Src/stm32f1xx_hal_msp.c ****     HAL_NVIC_EnableIRQ(USB_LP_CAN1_RX0_IRQn);
ARM GAS  /tmp/ccoAiFXp.s 			page 7


 218              		.loc 1 127 0
 219 006a 1420     		movs	r0, #20
 220 006c FFF7FEFF 		bl	HAL_NVIC_EnableIRQ
 221              	.LVL20:
 128:Src/stm32f1xx_hal_msp.c ****   /* USER CODE BEGIN CAN1_MspInit 1 */
 129:Src/stm32f1xx_hal_msp.c **** 
 130:Src/stm32f1xx_hal_msp.c ****   /* USER CODE END CAN1_MspInit 1 */
 131:Src/stm32f1xx_hal_msp.c ****   }
 132:Src/stm32f1xx_hal_msp.c **** 
 133:Src/stm32f1xx_hal_msp.c **** }
 222              		.loc 1 133 0
 223 0070 07B0     		add	sp, sp, #28
 224              	.LCFI5:
 225              		.cfi_def_cfa_offset 12
 226              		@ sp needed
 227 0072 30BD     		pop	{r4, r5, pc}
 228              	.LVL21:
 229              	.L8:
 230              	.LCFI6:
 231              		.cfi_def_cfa_offset 0
 232              		.cfi_restore 4
 233              		.cfi_restore 5
 234              		.cfi_restore 14
 235 0074 7047     		bx	lr
 236              	.L10:
 237 0076 00BF     		.align	2
 238              	.L9:
 239 0078 00640040 		.word	1073767424
 240 007c 000C0140 		.word	1073810432
 241 0080 00000140 		.word	1073807360
 242              		.cfi_endproc
 243              	.LFE65:
 245              		.section	.text.HAL_CAN_MspDeInit,"ax",%progbits
 246              		.align	2
 247              		.global	HAL_CAN_MspDeInit
 248              		.thumb
 249              		.thumb_func
 251              	HAL_CAN_MspDeInit:
 252              	.LFB66:
 134:Src/stm32f1xx_hal_msp.c **** 
 135:Src/stm32f1xx_hal_msp.c **** void HAL_CAN_MspDeInit(CAN_HandleTypeDef* hcan)
 136:Src/stm32f1xx_hal_msp.c **** {
 253              		.loc 1 136 0
 254              		.cfi_startproc
 255              		@ args = 0, pretend = 0, frame = 0
 256              		@ frame_needed = 0, uses_anonymous_args = 0
 257              	.LVL22:
 258 0000 08B5     		push	{r3, lr}
 259              	.LCFI7:
 260              		.cfi_def_cfa_offset 8
 261              		.cfi_offset 3, -8
 262              		.cfi_offset 14, -4
 137:Src/stm32f1xx_hal_msp.c **** 
 138:Src/stm32f1xx_hal_msp.c ****   if(hcan->Instance==CAN1)
 263              		.loc 1 138 0
 264 0002 0268     		ldr	r2, [r0]
 265 0004 084B     		ldr	r3, .L14
ARM GAS  /tmp/ccoAiFXp.s 			page 8


 266 0006 9A42     		cmp	r2, r3
 267 0008 0CD1     		bne	.L11
 139:Src/stm32f1xx_hal_msp.c ****   {
 140:Src/stm32f1xx_hal_msp.c ****   /* USER CODE BEGIN CAN1_MspDeInit 0 */
 141:Src/stm32f1xx_hal_msp.c **** 
 142:Src/stm32f1xx_hal_msp.c ****   /* USER CODE END CAN1_MspDeInit 0 */
 143:Src/stm32f1xx_hal_msp.c ****     /* Peripheral clock disable */
 144:Src/stm32f1xx_hal_msp.c ****     __HAL_RCC_CAN1_CLK_DISABLE();
 268              		.loc 1 144 0
 269 000a 084A     		ldr	r2, .L14+4
 270 000c D369     		ldr	r3, [r2, #28]
 271 000e 23F00073 		bic	r3, r3, #33554432
 272 0012 D361     		str	r3, [r2, #28]
 145:Src/stm32f1xx_hal_msp.c ****   
 146:Src/stm32f1xx_hal_msp.c ****     /**CAN GPIO Configuration    
 147:Src/stm32f1xx_hal_msp.c ****     PB8     ------> CAN_RX
 148:Src/stm32f1xx_hal_msp.c ****     PB9     ------> CAN_TX 
 149:Src/stm32f1xx_hal_msp.c ****     */
 150:Src/stm32f1xx_hal_msp.c ****     HAL_GPIO_DeInit(GPIOB, GPIO_PIN_8|GPIO_PIN_9);
 273              		.loc 1 150 0
 274 0014 4FF44071 		mov	r1, #768
 275 0018 0548     		ldr	r0, .L14+8
 276              	.LVL23:
 277 001a FFF7FEFF 		bl	HAL_GPIO_DeInit
 278              	.LVL24:
 151:Src/stm32f1xx_hal_msp.c **** 
 152:Src/stm32f1xx_hal_msp.c ****     /* CAN1 interrupt DeInit */
 153:Src/stm32f1xx_hal_msp.c ****     HAL_NVIC_DisableIRQ(USB_LP_CAN1_RX0_IRQn);
 279              		.loc 1 153 0
 280 001e 1420     		movs	r0, #20
 281 0020 FFF7FEFF 		bl	HAL_NVIC_DisableIRQ
 282              	.LVL25:
 283              	.L11:
 284 0024 08BD     		pop	{r3, pc}
 285              	.L15:
 286 0026 00BF     		.align	2
 287              	.L14:
 288 0028 00640040 		.word	1073767424
 289 002c 00100240 		.word	1073876992
 290 0030 000C0140 		.word	1073810432
 291              		.cfi_endproc
 292              	.LFE66:
 294              		.section	.text.HAL_UART_MspInit,"ax",%progbits
 295              		.align	2
 296              		.global	HAL_UART_MspInit
 297              		.thumb
 298              		.thumb_func
 300              	HAL_UART_MspInit:
 301              	.LFB67:
 154:Src/stm32f1xx_hal_msp.c ****   /* USER CODE BEGIN CAN1_MspDeInit 1 */
 155:Src/stm32f1xx_hal_msp.c **** 
 156:Src/stm32f1xx_hal_msp.c ****   /* USER CODE END CAN1_MspDeInit 1 */
 157:Src/stm32f1xx_hal_msp.c ****   }
 158:Src/stm32f1xx_hal_msp.c **** 
 159:Src/stm32f1xx_hal_msp.c **** }
 160:Src/stm32f1xx_hal_msp.c **** 
 161:Src/stm32f1xx_hal_msp.c **** void HAL_UART_MspInit(UART_HandleTypeDef* huart)
ARM GAS  /tmp/ccoAiFXp.s 			page 9


 162:Src/stm32f1xx_hal_msp.c **** {
 302              		.loc 1 162 0
 303              		.cfi_startproc
 304              		@ args = 0, pretend = 0, frame = 32
 305              		@ frame_needed = 0, uses_anonymous_args = 0
 306              	.LVL26:
 307 0000 70B5     		push	{r4, r5, r6, lr}
 308              	.LCFI8:
 309              		.cfi_def_cfa_offset 16
 310              		.cfi_offset 4, -16
 311              		.cfi_offset 5, -12
 312              		.cfi_offset 6, -8
 313              		.cfi_offset 14, -4
 314 0002 88B0     		sub	sp, sp, #32
 315              	.LCFI9:
 316              		.cfi_def_cfa_offset 48
 163:Src/stm32f1xx_hal_msp.c **** 
 164:Src/stm32f1xx_hal_msp.c ****   GPIO_InitTypeDef GPIO_InitStruct;
 165:Src/stm32f1xx_hal_msp.c ****   if(huart->Instance==USART1)
 317              		.loc 1 165 0
 318 0004 0368     		ldr	r3, [r0]
 319 0006 414A     		ldr	r2, .L22
 320 0008 9342     		cmp	r3, r2
 321 000a 20D1     		bne	.L17
 322              	.LBB7:
 166:Src/stm32f1xx_hal_msp.c ****   {
 167:Src/stm32f1xx_hal_msp.c ****   /* USER CODE BEGIN USART1_MspInit 0 */
 168:Src/stm32f1xx_hal_msp.c **** 
 169:Src/stm32f1xx_hal_msp.c ****   /* USER CODE END USART1_MspInit 0 */
 170:Src/stm32f1xx_hal_msp.c ****     /* Peripheral clock enable */
 171:Src/stm32f1xx_hal_msp.c ****     __HAL_RCC_USART1_CLK_ENABLE();
 323              		.loc 1 171 0
 324 000c 404B     		ldr	r3, .L22+4
 325 000e 9A69     		ldr	r2, [r3, #24]
 326 0010 42F48042 		orr	r2, r2, #16384
 327 0014 9A61     		str	r2, [r3, #24]
 328 0016 9B69     		ldr	r3, [r3, #24]
 329 0018 03F48043 		and	r3, r3, #16384
 330 001c 0193     		str	r3, [sp, #4]
 331 001e 019B     		ldr	r3, [sp, #4]
 332              	.LBE7:
 172:Src/stm32f1xx_hal_msp.c ****   
 173:Src/stm32f1xx_hal_msp.c ****     /**USART1 GPIO Configuration    
 174:Src/stm32f1xx_hal_msp.c ****     PA9     ------> USART1_TX
 175:Src/stm32f1xx_hal_msp.c ****     PA10     ------> USART1_RX 
 176:Src/stm32f1xx_hal_msp.c ****     */
 177:Src/stm32f1xx_hal_msp.c ****     GPIO_InitStruct.Pin = GPIO_PIN_9;
 333              		.loc 1 177 0
 334 0020 4FF40073 		mov	r3, #512
 335 0024 0493     		str	r3, [sp, #16]
 178:Src/stm32f1xx_hal_msp.c ****     GPIO_InitStruct.Mode = GPIO_MODE_AF_PP;
 336              		.loc 1 178 0
 337 0026 0223     		movs	r3, #2
 338 0028 0593     		str	r3, [sp, #20]
 179:Src/stm32f1xx_hal_msp.c ****     GPIO_InitStruct.Speed = GPIO_SPEED_FREQ_HIGH;
 339              		.loc 1 179 0
 340 002a 0323     		movs	r3, #3
ARM GAS  /tmp/ccoAiFXp.s 			page 10


 341 002c 0793     		str	r3, [sp, #28]
 180:Src/stm32f1xx_hal_msp.c ****     HAL_GPIO_Init(GPIOA, &GPIO_InitStruct);
 342              		.loc 1 180 0
 343 002e 394C     		ldr	r4, .L22+8
 344 0030 04A9     		add	r1, sp, #16
 345 0032 2046     		mov	r0, r4
 346              	.LVL27:
 347 0034 FFF7FEFF 		bl	HAL_GPIO_Init
 348              	.LVL28:
 181:Src/stm32f1xx_hal_msp.c **** 
 182:Src/stm32f1xx_hal_msp.c ****     GPIO_InitStruct.Pin = GPIO_PIN_10;
 349              		.loc 1 182 0
 350 0038 4FF48063 		mov	r3, #1024
 351 003c 0493     		str	r3, [sp, #16]
 183:Src/stm32f1xx_hal_msp.c ****     GPIO_InitStruct.Mode = GPIO_MODE_INPUT;
 352              		.loc 1 183 0
 353 003e 0023     		movs	r3, #0
 354 0040 0593     		str	r3, [sp, #20]
 184:Src/stm32f1xx_hal_msp.c ****     GPIO_InitStruct.Pull = GPIO_NOPULL;
 355              		.loc 1 184 0
 356 0042 0693     		str	r3, [sp, #24]
 185:Src/stm32f1xx_hal_msp.c ****     HAL_GPIO_Init(GPIOA, &GPIO_InitStruct);
 357              		.loc 1 185 0
 358 0044 04A9     		add	r1, sp, #16
 359 0046 2046     		mov	r0, r4
 360 0048 FFF7FEFF 		bl	HAL_GPIO_Init
 361              	.LVL29:
 362 004c 5BE0     		b	.L16
 363              	.LVL30:
 364              	.L17:
 365 004e 0446     		mov	r4, r0
 186:Src/stm32f1xx_hal_msp.c **** 
 187:Src/stm32f1xx_hal_msp.c ****   /* USER CODE BEGIN USART1_MspInit 1 */
 188:Src/stm32f1xx_hal_msp.c **** 
 189:Src/stm32f1xx_hal_msp.c ****   /* USER CODE END USART1_MspInit 1 */
 190:Src/stm32f1xx_hal_msp.c ****   }
 191:Src/stm32f1xx_hal_msp.c ****   else if(huart->Instance==USART2)
 366              		.loc 1 191 0
 367 0050 314A     		ldr	r2, .L22+12
 368 0052 9342     		cmp	r3, r2
 369 0054 34D1     		bne	.L19
 370              	.LBB8:
 192:Src/stm32f1xx_hal_msp.c ****   {
 193:Src/stm32f1xx_hal_msp.c ****   /* USER CODE BEGIN USART2_MspInit 0 */
 194:Src/stm32f1xx_hal_msp.c **** 
 195:Src/stm32f1xx_hal_msp.c ****   /* USER CODE END USART2_MspInit 0 */
 196:Src/stm32f1xx_hal_msp.c ****     /* Peripheral clock enable */
 197:Src/stm32f1xx_hal_msp.c ****     __HAL_RCC_USART2_CLK_ENABLE();
 371              		.loc 1 197 0
 372 0056 2E4B     		ldr	r3, .L22+4
 373 0058 DA69     		ldr	r2, [r3, #28]
 374 005a 42F40032 		orr	r2, r2, #131072
 375 005e DA61     		str	r2, [r3, #28]
 376 0060 DB69     		ldr	r3, [r3, #28]
 377 0062 03F40033 		and	r3, r3, #131072
 378 0066 0293     		str	r3, [sp, #8]
 379 0068 029B     		ldr	r3, [sp, #8]
ARM GAS  /tmp/ccoAiFXp.s 			page 11


 380              	.LBE8:
 198:Src/stm32f1xx_hal_msp.c ****   
 199:Src/stm32f1xx_hal_msp.c ****     /**USART2 GPIO Configuration    
 200:Src/stm32f1xx_hal_msp.c ****     PA2     ------> USART2_TX
 201:Src/stm32f1xx_hal_msp.c ****     PA3     ------> USART2_RX 
 202:Src/stm32f1xx_hal_msp.c ****     */
 203:Src/stm32f1xx_hal_msp.c ****     GPIO_InitStruct.Pin = GPIO_PIN_2;
 381              		.loc 1 203 0
 382 006a 0423     		movs	r3, #4
 383 006c 0493     		str	r3, [sp, #16]
 204:Src/stm32f1xx_hal_msp.c ****     GPIO_InitStruct.Mode = GPIO_MODE_AF_PP;
 384              		.loc 1 204 0
 385 006e 0223     		movs	r3, #2
 386 0070 0593     		str	r3, [sp, #20]
 205:Src/stm32f1xx_hal_msp.c ****     GPIO_InitStruct.Speed = GPIO_SPEED_FREQ_HIGH;
 387              		.loc 1 205 0
 388 0072 0323     		movs	r3, #3
 389 0074 0793     		str	r3, [sp, #28]
 206:Src/stm32f1xx_hal_msp.c ****     HAL_GPIO_Init(GPIOA, &GPIO_InitStruct);
 390              		.loc 1 206 0
 391 0076 274E     		ldr	r6, .L22+8
 392 0078 04A9     		add	r1, sp, #16
 393 007a 3046     		mov	r0, r6
 394              	.LVL31:
 395 007c FFF7FEFF 		bl	HAL_GPIO_Init
 396              	.LVL32:
 207:Src/stm32f1xx_hal_msp.c **** 
 208:Src/stm32f1xx_hal_msp.c ****     GPIO_InitStruct.Pin = GPIO_PIN_3;
 397              		.loc 1 208 0
 398 0080 0823     		movs	r3, #8
 399 0082 0493     		str	r3, [sp, #16]
 209:Src/stm32f1xx_hal_msp.c ****     GPIO_InitStruct.Mode = GPIO_MODE_INPUT;
 400              		.loc 1 209 0
 401 0084 0025     		movs	r5, #0
 402 0086 0595     		str	r5, [sp, #20]
 210:Src/stm32f1xx_hal_msp.c ****     GPIO_InitStruct.Pull = GPIO_NOPULL;
 403              		.loc 1 210 0
 404 0088 0695     		str	r5, [sp, #24]
 211:Src/stm32f1xx_hal_msp.c ****     HAL_GPIO_Init(GPIOA, &GPIO_InitStruct);
 405              		.loc 1 211 0
 406 008a 04A9     		add	r1, sp, #16
 407 008c 3046     		mov	r0, r6
 408 008e FFF7FEFF 		bl	HAL_GPIO_Init
 409              	.LVL33:
 212:Src/stm32f1xx_hal_msp.c **** 
 213:Src/stm32f1xx_hal_msp.c ****     /* USART2 DMA Init */
 214:Src/stm32f1xx_hal_msp.c ****     /* USART2_RX Init */
 215:Src/stm32f1xx_hal_msp.c ****     hdma_usart2_rx.Instance = DMA1_Channel6;
 410              		.loc 1 215 0
 411 0092 2248     		ldr	r0, .L22+16
 412 0094 224B     		ldr	r3, .L22+20
 413 0096 0360     		str	r3, [r0]
 216:Src/stm32f1xx_hal_msp.c ****     hdma_usart2_rx.Init.Direction = DMA_PERIPH_TO_MEMORY;
 414              		.loc 1 216 0
 415 0098 4560     		str	r5, [r0, #4]
 217:Src/stm32f1xx_hal_msp.c ****     hdma_usart2_rx.Init.PeriphInc = DMA_PINC_DISABLE;
 416              		.loc 1 217 0
ARM GAS  /tmp/ccoAiFXp.s 			page 12


 417 009a 8560     		str	r5, [r0, #8]
 218:Src/stm32f1xx_hal_msp.c ****     hdma_usart2_rx.Init.MemInc = DMA_MINC_ENABLE;
 418              		.loc 1 218 0
 419 009c 8023     		movs	r3, #128
 420 009e C360     		str	r3, [r0, #12]
 219:Src/stm32f1xx_hal_msp.c ****     hdma_usart2_rx.Init.PeriphDataAlignment = DMA_PDATAALIGN_BYTE;
 421              		.loc 1 219 0
 422 00a0 0561     		str	r5, [r0, #16]
 220:Src/stm32f1xx_hal_msp.c ****     hdma_usart2_rx.Init.MemDataAlignment = DMA_MDATAALIGN_BYTE;
 423              		.loc 1 220 0
 424 00a2 4561     		str	r5, [r0, #20]
 221:Src/stm32f1xx_hal_msp.c ****     hdma_usart2_rx.Init.Mode = DMA_CIRCULAR;
 425              		.loc 1 221 0
 426 00a4 2023     		movs	r3, #32
 427 00a6 8361     		str	r3, [r0, #24]
 222:Src/stm32f1xx_hal_msp.c ****     hdma_usart2_rx.Init.Priority = DMA_PRIORITY_LOW;
 428              		.loc 1 222 0
 429 00a8 C561     		str	r5, [r0, #28]
 223:Src/stm32f1xx_hal_msp.c ****     if (HAL_DMA_Init(&hdma_usart2_rx) != HAL_OK)
 430              		.loc 1 223 0
 431 00aa FFF7FEFF 		bl	HAL_DMA_Init
 432              	.LVL34:
 433 00ae 18B1     		cbz	r0, .L20
 224:Src/stm32f1xx_hal_msp.c ****     {
 225:Src/stm32f1xx_hal_msp.c ****       _Error_Handler(__FILE__, __LINE__);
 434              		.loc 1 225 0
 435 00b0 E121     		movs	r1, #225
 436 00b2 1C48     		ldr	r0, .L22+24
 437 00b4 FFF7FEFF 		bl	_Error_Handler
 438              	.LVL35:
 439              	.L20:
 226:Src/stm32f1xx_hal_msp.c ****     }
 227:Src/stm32f1xx_hal_msp.c **** 
 228:Src/stm32f1xx_hal_msp.c ****     __HAL_LINKDMA(huart,hdmarx,hdma_usart2_rx);
 440              		.loc 1 228 0
 441 00b8 184B     		ldr	r3, .L22+16
 442 00ba 6363     		str	r3, [r4, #52]
 443 00bc 5C62     		str	r4, [r3, #36]
 444 00be 22E0     		b	.L16
 445              	.LVL36:
 446              	.L19:
 229:Src/stm32f1xx_hal_msp.c **** 
 230:Src/stm32f1xx_hal_msp.c ****   /* USER CODE BEGIN USART2_MspInit 1 */
 231:Src/stm32f1xx_hal_msp.c **** 
 232:Src/stm32f1xx_hal_msp.c ****   /* USER CODE END USART2_MspInit 1 */
 233:Src/stm32f1xx_hal_msp.c ****   }
 234:Src/stm32f1xx_hal_msp.c ****   else if(huart->Instance==USART3)
 447              		.loc 1 234 0
 448 00c0 194A     		ldr	r2, .L22+28
 449 00c2 9342     		cmp	r3, r2
 450 00c4 1FD1     		bne	.L16
 451              	.LBB9:
 235:Src/stm32f1xx_hal_msp.c ****   {
 236:Src/stm32f1xx_hal_msp.c ****   /* USER CODE BEGIN USART3_MspInit 0 */
 237:Src/stm32f1xx_hal_msp.c **** 
 238:Src/stm32f1xx_hal_msp.c ****   /* USER CODE END USART3_MspInit 0 */
 239:Src/stm32f1xx_hal_msp.c ****     /* Peripheral clock enable */
ARM GAS  /tmp/ccoAiFXp.s 			page 13


 240:Src/stm32f1xx_hal_msp.c ****     __HAL_RCC_USART3_CLK_ENABLE();
 452              		.loc 1 240 0
 453 00c6 124B     		ldr	r3, .L22+4
 454 00c8 DA69     		ldr	r2, [r3, #28]
 455 00ca 42F48022 		orr	r2, r2, #262144
 456 00ce DA61     		str	r2, [r3, #28]
 457 00d0 DB69     		ldr	r3, [r3, #28]
 458 00d2 03F48023 		and	r3, r3, #262144
 459 00d6 0393     		str	r3, [sp, #12]
 460 00d8 039B     		ldr	r3, [sp, #12]
 461              	.LBE9:
 241:Src/stm32f1xx_hal_msp.c ****   
 242:Src/stm32f1xx_hal_msp.c ****     /**USART3 GPIO Configuration    
 243:Src/stm32f1xx_hal_msp.c ****     PB10     ------> USART3_TX
 244:Src/stm32f1xx_hal_msp.c ****     PB11     ------> USART3_RX 
 245:Src/stm32f1xx_hal_msp.c ****     */
 246:Src/stm32f1xx_hal_msp.c ****     GPIO_InitStruct.Pin = GPIO_PIN_10;
 462              		.loc 1 246 0
 463 00da 4FF48063 		mov	r3, #1024
 464 00de 0493     		str	r3, [sp, #16]
 247:Src/stm32f1xx_hal_msp.c ****     GPIO_InitStruct.Mode = GPIO_MODE_AF_PP;
 465              		.loc 1 247 0
 466 00e0 0223     		movs	r3, #2
 467 00e2 0593     		str	r3, [sp, #20]
 248:Src/stm32f1xx_hal_msp.c ****     GPIO_InitStruct.Speed = GPIO_SPEED_FREQ_HIGH;
 468              		.loc 1 248 0
 469 00e4 0323     		movs	r3, #3
 470 00e6 0793     		str	r3, [sp, #28]
 249:Src/stm32f1xx_hal_msp.c ****     HAL_GPIO_Init(GPIOB, &GPIO_InitStruct);
 471              		.loc 1 249 0
 472 00e8 104C     		ldr	r4, .L22+32
 473 00ea 04A9     		add	r1, sp, #16
 474 00ec 2046     		mov	r0, r4
 475              	.LVL37:
 476 00ee FFF7FEFF 		bl	HAL_GPIO_Init
 477              	.LVL38:
 250:Src/stm32f1xx_hal_msp.c **** 
 251:Src/stm32f1xx_hal_msp.c ****     GPIO_InitStruct.Pin = GPIO_PIN_11;
 478              		.loc 1 251 0
 479 00f2 4FF40063 		mov	r3, #2048
 480 00f6 0493     		str	r3, [sp, #16]
 252:Src/stm32f1xx_hal_msp.c ****     GPIO_InitStruct.Mode = GPIO_MODE_INPUT;
 481              		.loc 1 252 0
 482 00f8 0023     		movs	r3, #0
 483 00fa 0593     		str	r3, [sp, #20]
 253:Src/stm32f1xx_hal_msp.c ****     GPIO_InitStruct.Pull = GPIO_NOPULL;
 484              		.loc 1 253 0
 485 00fc 0693     		str	r3, [sp, #24]
 254:Src/stm32f1xx_hal_msp.c ****     HAL_GPIO_Init(GPIOB, &GPIO_InitStruct);
 486              		.loc 1 254 0
 487 00fe 04A9     		add	r1, sp, #16
 488 0100 2046     		mov	r0, r4
 489 0102 FFF7FEFF 		bl	HAL_GPIO_Init
 490              	.LVL39:
 491              	.L16:
 255:Src/stm32f1xx_hal_msp.c **** 
 256:Src/stm32f1xx_hal_msp.c ****   /* USER CODE BEGIN USART3_MspInit 1 */
ARM GAS  /tmp/ccoAiFXp.s 			page 14


 257:Src/stm32f1xx_hal_msp.c **** 
 258:Src/stm32f1xx_hal_msp.c ****   /* USER CODE END USART3_MspInit 1 */
 259:Src/stm32f1xx_hal_msp.c ****   }
 260:Src/stm32f1xx_hal_msp.c **** 
 261:Src/stm32f1xx_hal_msp.c **** }
 492              		.loc 1 261 0
 493 0106 08B0     		add	sp, sp, #32
 494              	.LCFI10:
 495              		.cfi_def_cfa_offset 16
 496              		@ sp needed
 497 0108 70BD     		pop	{r4, r5, r6, pc}
 498              	.L23:
 499 010a 00BF     		.align	2
 500              	.L22:
 501 010c 00380140 		.word	1073821696
 502 0110 00100240 		.word	1073876992
 503 0114 00080140 		.word	1073809408
 504 0118 00440040 		.word	1073759232
 505 011c 00000000 		.word	hdma_usart2_rx
 506 0120 6C000240 		.word	1073873004
 507 0124 00000000 		.word	.LC0
 508 0128 00480040 		.word	1073760256
 509 012c 000C0140 		.word	1073810432
 510              		.cfi_endproc
 511              	.LFE67:
 513              		.section	.text.HAL_UART_MspDeInit,"ax",%progbits
 514              		.align	2
 515              		.global	HAL_UART_MspDeInit
 516              		.thumb
 517              		.thumb_func
 519              	HAL_UART_MspDeInit:
 520              	.LFB68:
 262:Src/stm32f1xx_hal_msp.c **** 
 263:Src/stm32f1xx_hal_msp.c **** void HAL_UART_MspDeInit(UART_HandleTypeDef* huart)
 264:Src/stm32f1xx_hal_msp.c **** {
 521              		.loc 1 264 0
 522              		.cfi_startproc
 523              		@ args = 0, pretend = 0, frame = 0
 524              		@ frame_needed = 0, uses_anonymous_args = 0
 525              	.LVL40:
 526 0000 10B5     		push	{r4, lr}
 527              	.LCFI11:
 528              		.cfi_def_cfa_offset 8
 529              		.cfi_offset 4, -8
 530              		.cfi_offset 14, -4
 265:Src/stm32f1xx_hal_msp.c **** 
 266:Src/stm32f1xx_hal_msp.c ****   if(huart->Instance==USART1)
 531              		.loc 1 266 0
 532 0002 0368     		ldr	r3, [r0]
 533 0004 1C4A     		ldr	r2, .L29
 534 0006 9342     		cmp	r3, r2
 535 0008 0ED1     		bne	.L25
 267:Src/stm32f1xx_hal_msp.c ****   {
 268:Src/stm32f1xx_hal_msp.c ****   /* USER CODE BEGIN USART1_MspDeInit 0 */
 269:Src/stm32f1xx_hal_msp.c **** 
 270:Src/stm32f1xx_hal_msp.c ****   /* USER CODE END USART1_MspDeInit 0 */
 271:Src/stm32f1xx_hal_msp.c ****     /* Peripheral clock disable */
ARM GAS  /tmp/ccoAiFXp.s 			page 15


 272:Src/stm32f1xx_hal_msp.c ****     __HAL_RCC_USART1_CLK_DISABLE();
 536              		.loc 1 272 0
 537 000a 02F55842 		add	r2, r2, #55296
 538 000e 9369     		ldr	r3, [r2, #24]
 539 0010 23F48043 		bic	r3, r3, #16384
 540 0014 9361     		str	r3, [r2, #24]
 273:Src/stm32f1xx_hal_msp.c ****   
 274:Src/stm32f1xx_hal_msp.c ****     /**USART1 GPIO Configuration    
 275:Src/stm32f1xx_hal_msp.c ****     PA9     ------> USART1_TX
 276:Src/stm32f1xx_hal_msp.c ****     PA10     ------> USART1_RX 
 277:Src/stm32f1xx_hal_msp.c ****     */
 278:Src/stm32f1xx_hal_msp.c ****     HAL_GPIO_DeInit(GPIOA, GPIO_PIN_9|GPIO_PIN_10);
 541              		.loc 1 278 0
 542 0016 4FF4C061 		mov	r1, #1536
 543 001a 1848     		ldr	r0, .L29+4
 544              	.LVL41:
 545 001c FFF7FEFF 		bl	HAL_GPIO_DeInit
 546              	.LVL42:
 279:Src/stm32f1xx_hal_msp.c **** 
 280:Src/stm32f1xx_hal_msp.c ****     /* USART1 interrupt DeInit */
 281:Src/stm32f1xx_hal_msp.c ****     HAL_NVIC_DisableIRQ(USART1_IRQn);
 547              		.loc 1 281 0
 548 0020 2520     		movs	r0, #37
 549 0022 FFF7FEFF 		bl	HAL_NVIC_DisableIRQ
 550              	.LVL43:
 551 0026 10BD     		pop	{r4, pc}
 552              	.LVL44:
 553              	.L25:
 554 0028 0446     		mov	r4, r0
 282:Src/stm32f1xx_hal_msp.c ****   /* USER CODE BEGIN USART1_MspDeInit 1 */
 283:Src/stm32f1xx_hal_msp.c **** 
 284:Src/stm32f1xx_hal_msp.c ****   /* USER CODE END USART1_MspDeInit 1 */
 285:Src/stm32f1xx_hal_msp.c ****   }
 286:Src/stm32f1xx_hal_msp.c ****   else if(huart->Instance==USART2)
 555              		.loc 1 286 0
 556 002a 154A     		ldr	r2, .L29+8
 557 002c 9342     		cmp	r3, r2
 558 002e 10D1     		bne	.L27
 287:Src/stm32f1xx_hal_msp.c ****   {
 288:Src/stm32f1xx_hal_msp.c ****   /* USER CODE BEGIN USART2_MspDeInit 0 */
 289:Src/stm32f1xx_hal_msp.c **** 
 290:Src/stm32f1xx_hal_msp.c ****   /* USER CODE END USART2_MspDeInit 0 */
 291:Src/stm32f1xx_hal_msp.c ****     /* Peripheral clock disable */
 292:Src/stm32f1xx_hal_msp.c ****     __HAL_RCC_USART2_CLK_DISABLE();
 559              		.loc 1 292 0
 560 0030 02F5E632 		add	r2, r2, #117760
 561 0034 D369     		ldr	r3, [r2, #28]
 562 0036 23F40033 		bic	r3, r3, #131072
 563 003a D361     		str	r3, [r2, #28]
 293:Src/stm32f1xx_hal_msp.c ****   
 294:Src/stm32f1xx_hal_msp.c ****     /**USART2 GPIO Configuration    
 295:Src/stm32f1xx_hal_msp.c ****     PA2     ------> USART2_TX
 296:Src/stm32f1xx_hal_msp.c ****     PA3     ------> USART2_RX 
 297:Src/stm32f1xx_hal_msp.c ****     */
 298:Src/stm32f1xx_hal_msp.c ****     HAL_GPIO_DeInit(GPIOA, GPIO_PIN_2|GPIO_PIN_3);
 564              		.loc 1 298 0
 565 003c 0C21     		movs	r1, #12
ARM GAS  /tmp/ccoAiFXp.s 			page 16


 566 003e 0F48     		ldr	r0, .L29+4
 567              	.LVL45:
 568 0040 FFF7FEFF 		bl	HAL_GPIO_DeInit
 569              	.LVL46:
 299:Src/stm32f1xx_hal_msp.c **** 
 300:Src/stm32f1xx_hal_msp.c ****     /* USART2 DMA DeInit */
 301:Src/stm32f1xx_hal_msp.c ****     HAL_DMA_DeInit(huart->hdmarx);
 570              		.loc 1 301 0
 571 0044 606B     		ldr	r0, [r4, #52]
 572 0046 FFF7FEFF 		bl	HAL_DMA_DeInit
 573              	.LVL47:
 302:Src/stm32f1xx_hal_msp.c **** 
 303:Src/stm32f1xx_hal_msp.c ****     /* USART2 interrupt DeInit */
 304:Src/stm32f1xx_hal_msp.c ****     HAL_NVIC_DisableIRQ(USART2_IRQn);
 574              		.loc 1 304 0
 575 004a 2620     		movs	r0, #38
 576 004c FFF7FEFF 		bl	HAL_NVIC_DisableIRQ
 577              	.LVL48:
 578 0050 10BD     		pop	{r4, pc}
 579              	.LVL49:
 580              	.L27:
 305:Src/stm32f1xx_hal_msp.c ****   /* USER CODE BEGIN USART2_MspDeInit 1 */
 306:Src/stm32f1xx_hal_msp.c **** 
 307:Src/stm32f1xx_hal_msp.c ****   /* USER CODE END USART2_MspDeInit 1 */
 308:Src/stm32f1xx_hal_msp.c ****   }
 309:Src/stm32f1xx_hal_msp.c ****   else if(huart->Instance==USART3)
 581              		.loc 1 309 0
 582 0052 0C4A     		ldr	r2, .L29+12
 583 0054 9342     		cmp	r3, r2
 584 0056 0DD1     		bne	.L24
 310:Src/stm32f1xx_hal_msp.c ****   {
 311:Src/stm32f1xx_hal_msp.c ****   /* USER CODE BEGIN USART3_MspDeInit 0 */
 312:Src/stm32f1xx_hal_msp.c **** 
 313:Src/stm32f1xx_hal_msp.c ****   /* USER CODE END USART3_MspDeInit 0 */
 314:Src/stm32f1xx_hal_msp.c ****     /* Peripheral clock disable */
 315:Src/stm32f1xx_hal_msp.c ****     __HAL_RCC_USART3_CLK_DISABLE();
 585              		.loc 1 315 0
 586 0058 02F5E432 		add	r2, r2, #116736
 587 005c D369     		ldr	r3, [r2, #28]
 588 005e 23F48023 		bic	r3, r3, #262144
 589 0062 D361     		str	r3, [r2, #28]
 316:Src/stm32f1xx_hal_msp.c ****   
 317:Src/stm32f1xx_hal_msp.c ****     /**USART3 GPIO Configuration    
 318:Src/stm32f1xx_hal_msp.c ****     PB10     ------> USART3_TX
 319:Src/stm32f1xx_hal_msp.c ****     PB11     ------> USART3_RX 
 320:Src/stm32f1xx_hal_msp.c ****     */
 321:Src/stm32f1xx_hal_msp.c ****     HAL_GPIO_DeInit(GPIOB, GPIO_PIN_10|GPIO_PIN_11);
 590              		.loc 1 321 0
 591 0064 4FF44061 		mov	r1, #3072
 592 0068 0748     		ldr	r0, .L29+16
 593              	.LVL50:
 594 006a FFF7FEFF 		bl	HAL_GPIO_DeInit
 595              	.LVL51:
 322:Src/stm32f1xx_hal_msp.c **** 
 323:Src/stm32f1xx_hal_msp.c ****     /* USART3 interrupt DeInit */
 324:Src/stm32f1xx_hal_msp.c ****     HAL_NVIC_DisableIRQ(USART3_IRQn);
 596              		.loc 1 324 0
ARM GAS  /tmp/ccoAiFXp.s 			page 17


 597 006e 2720     		movs	r0, #39
 598 0070 FFF7FEFF 		bl	HAL_NVIC_DisableIRQ
 599              	.LVL52:
 600              	.L24:
 601 0074 10BD     		pop	{r4, pc}
 602              	.LVL53:
 603              	.L30:
 604 0076 00BF     		.align	2
 605              	.L29:
 606 0078 00380140 		.word	1073821696
 607 007c 00080140 		.word	1073809408
 608 0080 00440040 		.word	1073759232
 609 0084 00480040 		.word	1073760256
 610 0088 000C0140 		.word	1073810432
 611              		.cfi_endproc
 612              	.LFE68:
 614              		.section	.rodata.str1.4,"aMS",%progbits,1
 615              		.align	2
 616              	.LC0:
 617 0000 5372632F 		.ascii	"Src/stm32f1xx_hal_msp.c\000"
 617      73746D33 
 617      32663178 
 617      785F6861 
 617      6C5F6D73 
 618              		.text
 619              	.Letext0:
 620              		.file 2 "/home/user/Library/gcc-arm-none-eabi-5_4-2016q3/arm-none-eabi/include/machine/_default_ty
 621              		.file 3 "/home/user/Library/gcc-arm-none-eabi-5_4-2016q3/arm-none-eabi/include/sys/_stdint.h"
 622              		.file 4 "Drivers/CMSIS/Device/ST/STM32F1xx/Include/stm32f103xe.h"
 623              		.file 5 "Drivers/STM32F1xx_HAL_Driver/Inc/stm32f1xx_hal_def.h"
 624              		.file 6 "Drivers/STM32F1xx_HAL_Driver/Inc/stm32f1xx_hal_gpio.h"
 625              		.file 7 "Drivers/STM32F1xx_HAL_Driver/Inc/stm32f1xx_hal_dma.h"
 626              		.file 8 "Drivers/STM32F1xx_HAL_Driver/Inc/stm32f1xx_hal_can.h"
 627              		.file 9 "Drivers/STM32F1xx_HAL_Driver/Inc/stm32f1xx_hal_uart.h"
 628              		.file 10 "Drivers/CMSIS/Include/core_cm3.h"
 629              		.file 11 "Drivers/STM32F1xx_HAL_Driver/Inc/stm32f1xx_hal_cortex.h"
ARM GAS  /tmp/ccoAiFXp.s 			page 18

